
some_trial.elf:     file format elf32-littlenios2
some_trial.elf
architecture: nios2:r1, flags 0x00000112:
EXEC_P, HAS_SYMS, D_PAGED
start address 0x080001bc

Program Header:
    LOAD off    0x00001000 vaddr 0x08000000 paddr 0x08000000 align 2**12
         filesz 0x00000020 memsz 0x00000020 flags r-x
    LOAD off    0x00001020 vaddr 0x08000020 paddr 0x08000020 align 2**12
         filesz 0x00013528 memsz 0x00013528 flags r-x
    LOAD off    0x00014548 vaddr 0x08013548 paddr 0x08015038 align 2**12
         filesz 0x00001af0 memsz 0x00001af0 flags rw-
    LOAD off    0x00016b28 vaddr 0x08016b28 paddr 0x08016b28 align 2**12
         filesz 0x00000000 memsz 0x00000300 flags rw-

Sections:
Idx Name          Size      VMA       LMA       File off  Algn
  0 .entry        00000020  08000000  08000000  00001000  2**5
                  CONTENTS, ALLOC, LOAD, READONLY, CODE
  1 .exceptions   0000019c  08000020  08000020  00001020  2**2
                  CONTENTS, ALLOC, LOAD, READONLY, CODE
  2 .text         00012d34  080001bc  080001bc  000011bc  2**2
                  CONTENTS, ALLOC, LOAD, READONLY, CODE
  3 .rodata       00000658  08012ef0  08012ef0  00013ef0  2**2
                  CONTENTS, ALLOC, LOAD, READONLY, DATA
  4 .rwdata       00001af0  08013548  08015038  00014548  2**2
                  CONTENTS, ALLOC, LOAD, DATA, SMALL_DATA
  5 .bss          00000300  08016b28  08016b28  00016b28  2**2
                  ALLOC, SMALL_DATA
  6 .sdram        00000000  08016e28  08016e28  00016038  2**0
                  CONTENTS
  7 .comment      00000023  00000000  00000000  00016038  2**0
                  CONTENTS, READONLY
  8 .debug_aranges 00000da0  00000000  00000000  00016060  2**3
                  CONTENTS, READONLY, DEBUGGING
  9 .debug_info   00027c98  00000000  00000000  00016e00  2**0
                  CONTENTS, READONLY, DEBUGGING
 10 .debug_abbrev 00009cec  00000000  00000000  0003ea98  2**0
                  CONTENTS, READONLY, DEBUGGING
 11 .debug_line   0000c7cb  00000000  00000000  00048784  2**0
                  CONTENTS, READONLY, DEBUGGING
 12 .debug_frame  00002478  00000000  00000000  00054f50  2**2
                  CONTENTS, READONLY, DEBUGGING
 13 .debug_str    0000350f  00000000  00000000  000573c8  2**0
                  CONTENTS, READONLY, DEBUGGING
 14 .debug_loc    0001b860  00000000  00000000  0005a8d7  2**0
                  CONTENTS, READONLY, DEBUGGING
 15 .debug_alt_sim_info 00000020  00000000  00000000  00076138  2**2
                  CONTENTS, READONLY, DEBUGGING
 16 .debug_ranges 00001510  00000000  00000000  00076158  2**3
                  CONTENTS, READONLY, DEBUGGING
 17 .thread_model 00000003  00000000  00000000  0007ac6b  2**0
                  CONTENTS, READONLY
 18 .cpu          0000000c  00000000  00000000  0007ac6e  2**0
                  CONTENTS, READONLY
 19 .qsys         00000001  00000000  00000000  0007ac7a  2**0
                  CONTENTS, READONLY
 20 .simulation_enabled 00000001  00000000  00000000  0007ac7b  2**0
                  CONTENTS, READONLY
 21 .stderr_dev   0000000b  00000000  00000000  0007ac7c  2**0
                  CONTENTS, READONLY
 22 .stdin_dev    0000000b  00000000  00000000  0007ac87  2**0
                  CONTENTS, READONLY
 23 .stdout_dev   0000000b  00000000  00000000  0007ac92  2**0
                  CONTENTS, READONLY
 24 .sopc_system_name 0000000b  00000000  00000000  0007ac9d  2**0
                  CONTENTS, READONLY
 25 .quartus_project_dir 0000006d  00000000  00000000  0007aca8  2**0
                  CONTENTS, READONLY
 26 .jdi          00004b4c  00000000  00000000  0007ad15  2**0
                  CONTENTS, READONLY
 27 .sopcinfo     00066321  00000000  00000000  0007f861  2**0
                  CONTENTS, READONLY
SYMBOL TABLE:
08000000 l    d  .entry	00000000 .entry
08000020 l    d  .exceptions	00000000 .exceptions
080001bc l    d  .text	00000000 .text
08012ef0 l    d  .rodata	00000000 .rodata
08013548 l    d  .rwdata	00000000 .rwdata
08016b28 l    d  .bss	00000000 .bss
08016e28 l    d  .sdram	00000000 .sdram
00000000 l    d  .comment	00000000 .comment
00000000 l    d  .debug_aranges	00000000 .debug_aranges
00000000 l    d  .debug_info	00000000 .debug_info
00000000 l    d  .debug_abbrev	00000000 .debug_abbrev
00000000 l    d  .debug_line	00000000 .debug_line
00000000 l    d  .debug_frame	00000000 .debug_frame
00000000 l    d  .debug_str	00000000 .debug_str
00000000 l    d  .debug_loc	00000000 .debug_loc
00000000 l    d  .debug_alt_sim_info	00000000 .debug_alt_sim_info
00000000 l    d  .debug_ranges	00000000 .debug_ranges
00000000 l    df *ABS*	00000000 ../some_trial_bsp//obj/HAL/src/crt0.o
080001f4 l       .text	00000000 alt_after_alt_main
00000000 l    df *ABS*	00000000 alt_exception_entry.o
08000094 l       .exceptions	00000000 alt_exception_unknown
00000000 l    df *ABS*	00000000 alt_irq_handler.c
00000000 l    df *ABS*	00000000 hello_world.c
08016b78 l     O .bss	00000064 buff.2879
08016bdc l     O .bss	00000064 buff.2885
00000000 l    df *ABS*	00000000 extendsfdf2.c
00000000 l    df *ABS*	00000000 libgcc2.c
00000000 l    df *ABS*	00000000 libgcc2.c
00000000 l    df *ABS*	00000000 printf.c
00000000 l    df *ABS*	00000000 putchar.c
00000000 l    df *ABS*	00000000 sprintf.c
00000000 l    df *ABS*	00000000 strtoul.c
00000000 l    df *ABS*	00000000 vfprintf.c
080130ce l     O .rodata	00000010 zeroes.4166
080130de l     O .rodata	00000010 blanks.4165
00000000 l    df *ABS*	00000000 vfprintf.c
080130ee l     O .rodata	00000010 zeroes.4181
080130fe l     O .rodata	00000010 blanks.4180
00000000 l    df *ABS*	00000000 wsetup.c
00000000 l    df *ABS*	00000000 ctype_.c
0801320f l     O .rodata	00000180 _ctype_b
00000000 l    df *ABS*	00000000 dtoa.c
08005338 l     F .text	00000200 quorem
00000000 l    df *ABS*	00000000 fflush.c
00000000 l    df *ABS*	00000000 findfp.c
08006eb8 l     F .text	00000008 __fp_lock
08006ec0 l     F .text	00000008 __fp_unlock
08006ed4 l     F .text	000001a0 __sinit.part.1
00000000 l    df *ABS*	00000000 mallocr.c
00000000 l    df *ABS*	00000000 fwalk.c
00000000 l    df *ABS*	00000000 impure.c
08013548 l     O .rwdata	00000424 impure_data
00000000 l    df *ABS*	00000000 locale.c
0801398c l     O .rwdata	00000020 lc_ctype_charset
0801396c l     O .rwdata	00000020 lc_message_charset
080139ac l     O .rwdata	00000038 lconv
00000000 l    df *ABS*	00000000 makebuf.c
00000000 l    df *ABS*	00000000 mallocr.c
00000000 l    df *ABS*	00000000 memchr.c
00000000 l    df *ABS*	00000000 memcpy.c
00000000 l    df *ABS*	00000000 memset.c
00000000 l    df *ABS*	00000000 mprec.c
080133b0 l     O .rodata	0000000c p05.2678
00000000 l    df *ABS*	00000000 putc.c
00000000 l    df *ABS*	00000000 s_fpclassify.c
00000000 l    df *ABS*	00000000 sbrkr.c
00000000 l    df *ABS*	00000000 stdio.c
00000000 l    df *ABS*	00000000 strcmp.c
00000000 l    df *ABS*	00000000 strlen.c
00000000 l    df *ABS*	00000000 vfprintf.c
080134d4 l     O .rodata	00000010 zeroes.4110
080134e4 l     O .rodata	00000010 blanks.4109
00000000 l    df *ABS*	00000000 vfprintf.c
0800abc4 l     F .text	000000fc __sprint_r.part.0
08013504 l     O .rodata	00000010 blanks.4125
080134f4 l     O .rodata	00000010 zeroes.4126
00000000 l    df *ABS*	00000000 wbuf.c
00000000 l    df *ABS*	00000000 writer.c
00000000 l    df *ABS*	00000000 closer.c
00000000 l    df *ABS*	00000000 mallocr.c
00000000 l    df *ABS*	00000000 fclose.c
00000000 l    df *ABS*	00000000 fputwc.c
00000000 l    df *ABS*	00000000 fstatr.c
00000000 l    df *ABS*	00000000 fvwrite.c
00000000 l    df *ABS*	00000000 int_errno.c
00000000 l    df *ABS*	00000000 isattyr.c
00000000 l    df *ABS*	00000000 lseekr.c
00000000 l    df *ABS*	00000000 memmove.c
00000000 l    df *ABS*	00000000 readr.c
00000000 l    df *ABS*	00000000 mallocr.c
00000000 l    df *ABS*	00000000 wcrtomb.c
00000000 l    df *ABS*	00000000 wctomb_r.c
00000000 l    df *ABS*	00000000 libgcc2.c
00000000 l    df *ABS*	00000000 libgcc2.c
00000000 l    df *ABS*	00000000 lib2-divmod.c
0800e080 l     F .text	0000006c udivmodsi4
00000000 l    df *ABS*	00000000 adddf3.c
00000000 l    df *ABS*	00000000 divdf3.c
00000000 l    df *ABS*	00000000 eqdf2.c
00000000 l    df *ABS*	00000000 gedf2.c
00000000 l    df *ABS*	00000000 ledf2.c
00000000 l    df *ABS*	00000000 muldf3.c
00000000 l    df *ABS*	00000000 subdf3.c
00000000 l    df *ABS*	00000000 fixdfsi.c
00000000 l    df *ABS*	00000000 floatsidf.c
00000000 l    df *ABS*	00000000 floatunsidf.c
00000000 l    df *ABS*	00000000 alt_close.c
08010748 l     F .text	00000050 alt_get_errno
00000000 l    df *ABS*	00000000 alt_dev.c
08010868 l     F .text	0000002c alt_dev_null_write
00000000 l    df *ABS*	00000000 alt_errno.c
00000000 l    df *ABS*	00000000 alt_fstat.c
08010894 l     F .text	00000050 alt_get_errno
00000000 l    df *ABS*	00000000 alt_isatty.c
08010994 l     F .text	00000050 alt_get_errno
00000000 l    df *ABS*	00000000 alt_load.c
08010a88 l     F .text	00000064 alt_load_section
00000000 l    df *ABS*	00000000 alt_lseek.c
08010b6c l     F .text	00000050 alt_get_errno
00000000 l    df *ABS*	00000000 alt_main.c
00000000 l    df *ABS*	00000000 alt_malloc_lock.c
00000000 l    df *ABS*	00000000 alt_read.c
08010d48 l     F .text	00000050 alt_get_errno
00000000 l    df *ABS*	00000000 alt_release_fd.c
00000000 l    df *ABS*	00000000 alt_sbrk.c
08015028 l     O .rwdata	00000004 heap_end
00000000 l    df *ABS*	00000000 alt_write.c
08010fa4 l     F .text	00000050 alt_get_errno
00000000 l    df *ABS*	00000000 alt_sys_init.c
080110ec l     F .text	00000038 alt_dev_reg
08013f94 l     O .rwdata	00001060 jtag_uart_0
00000000 l    df *ABS*	00000000 altera_avalon_jtag_uart_fd.c
00000000 l    df *ABS*	00000000 altera_avalon_jtag_uart_init.c
080113d8 l     F .text	00000204 altera_avalon_jtag_uart_irq
080115dc l     F .text	000000a8 altera_avalon_jtag_uart_timeout
00000000 l    df *ABS*	00000000 altera_avalon_jtag_uart_ioctl.c
00000000 l    df *ABS*	00000000 altera_avalon_jtag_uart_read.c
00000000 l    df *ABS*	00000000 altera_avalon_jtag_uart_write.c
00000000 l    df *ABS*	00000000 altera_avalon_timer_sc.c
08011bfc l     F .text	00000074 alt_avalon_timer_sc_irq
00000000 l    df *ABS*	00000000 alt_alarm_start.c
00000000 l    df *ABS*	00000000 alt_dcache_flush_all.c
00000000 l    df *ABS*	00000000 alt_dev_llist_insert.c
08011e54 l     F .text	00000050 alt_get_errno
00000000 l    df *ABS*	00000000 alt_do_ctors.c
00000000 l    df *ABS*	00000000 alt_do_dtors.c
00000000 l    df *ABS*	00000000 alt_icache_flush_all.c
00000000 l    df *ABS*	00000000 alt_iic.c
00000000 l    df *ABS*	00000000 alt_iic_isr_register.c
00000000 l    df *ABS*	00000000 alt_io_redirect.c
08012300 l     F .text	000000c0 alt_open_fd
00000000 l    df *ABS*	00000000 alt_irq_vars.c
00000000 l    df *ABS*	00000000 alt_open.c
08012438 l     F .text	00000050 alt_get_errno
08012488 l     F .text	000000cc alt_file_locked
00000000 l    df *ABS*	00000000 alt_tick.c
00000000 l    df *ABS*	00000000 altera_nios2_qsys_irq.c
00000000 l    df *ABS*	00000000 alt_find_dev.c
00000000 l    df *ABS*	00000000 alt_find_file.c
00000000 l    df *ABS*	00000000 alt_get_fd.c
00000000 l    df *ABS*	00000000 alt_icache_flush.c
00000000 l    df *ABS*	00000000 atexit.c
00000000 l    df *ABS*	00000000 exit.c
00000000 l    df *ABS*	00000000 memcmp.c
00000000 l    df *ABS*	00000000 __atexit.c
00000000 l    df *ABS*	00000000 __call_atexit.c
00000000 l    df *ABS*	00000000 alt_exit.c
08000ed0 g     F .text	00000018 putchar
08009374 g     F .text	00000074 _mprec_log10
08009460 g     F .text	0000008c __any_on
0800cb28 g     F .text	00000054 _isatty_r
080133bc g     O .rodata	00000028 __mprec_tinytens
08010c90 g     F .text	00000078 alt_main
08016d28 g     O .bss	00000100 alt_irq
0800cb7c g     F .text	0000005c _lseek_r
08000520 g     F .text	00000070 FloatToLongitudeConversion
08015038 g       *ABS*	00000000 __flash_rwdata_start
0800f314 g     F .text	00000084 .hidden __eqdf2
08016c68 g     O .bss	00000064 arr
080003f8 g     F .text	00000030 outputGPSData
08016e28 g       *ABS*	00000000 __alt_heap_start
08000e8c g     F .text	0000003c printf
0800d330 g     F .text	0000009c _wcrtomb_r
08000590 g     F .text	00000054 intialiseArray
080097f4 g     F .text	0000005c __sseek
08007208 g     F .text	00000010 __sinit
0800c058 g     F .text	00000154 __swbuf_r
080077dc g     F .text	0000007c _setlocale_r
08007074 g     F .text	00000064 __sfmoreglue
08010d28 g     F .text	00000020 __malloc_unlock
0800cbd8 g     F .text	0000015c memmove
080071f0 g     F .text	00000018 _cleanup
08008560 g     F .text	000000a8 _Balloc
0800f398 g     F .text	000000e0 .hidden __gtdf2
00000000  w      *UND*	00000000 __errno
08000000 g     F .entry	0000001c __reset
08000020 g       *ABS*	00000000 __flash_exceptions_start
0800c62c g     F .text	00000058 _fstat_r
08016b5c g     O .bss	00000004 errno
08009770 g     F .text	00000008 __seofread
08009b5c g     F .text	00001068 ___svfiprintf_internal_r
08016b64 g     O .bss	00000004 alt_argv
0801cff4 g       *ABS*	00000000 _gp
08000234 g     F .text	0000005c putcharRS232
08013e14 g     O .rwdata	00000180 alt_fd_list
080002d4 g     F .text	00000044 RS232TestForReceivedData
08000ec8 g     F .text	00000008 _putchar_r
08012868 g     F .text	00000090 alt_find_dev
08008304 g     F .text	00000138 memcpy
080001f8 g     F .text	0000003c Init_RS232
08006ec8 g     F .text	0000000c _cleanup_r
080105d4 g     F .text	000000d0 .hidden __floatsidf
080123c0 g     F .text	00000078 alt_io_redirect
0800f478 g     F .text	000000e0 .hidden __ltdf2
08012ef0 g       *ABS*	00000000 __DTOR_END__
08009654 g     F .text	00000074 __fpclassifyd
08000354 g     F .text	00000044 getcharGPS
080092d0 g     F .text	000000a4 __ratio
0800c034 g     F .text	00000024 __vfiprintf_internal
080117d8 g     F .text	0000020c altera_avalon_jtag_uart_read
00000000  w      *UND*	00000000 malloc
08000e60 g     F .text	0000002c _printf_r
0800e19c g     F .text	00000008 .hidden __udivsi3
080109e4 g     F .text	000000a4 isatty
0801340c g     O .rodata	000000c8 __mprec_tens
08007858 g     F .text	0000000c __locale_charset
08000bc4 g     F .text	00000040 printOnHex
08012ac0 g     F .text	0000008c alt_icache_flush
08016b58 g     O .bss	00000004 __malloc_top_pad
08001234 g     F .text	00000024 strtoul
08015000 g     O .rwdata	00000004 __mb_cur_max
08007888 g     F .text	0000000c _localeconv_r
0800c684 g     F .text	000004a4 __sfvwrite_r
08008960 g     F .text	0000003c __i2b
080096c8 g     F .text	00000054 _sbrk_r
0800cd34 g     F .text	0000005c _read_r
08015020 g     O .rwdata	00000004 alt_max_fd
0800c33c g     F .text	00000100 _fclose_r
08006e88 g     F .text	00000030 fflush
08016b54 g     O .bss	00000004 __malloc_max_sbrked_mem
08000cec g     F .text	00000110 .hidden __extendsfdf2
0800e1ac g     F .text	0000089c .hidden __adddf3
08009078 g     F .text	0000011c __b2d
0800daf0 g     F .text	00000590 .hidden __umoddi3
08010bbc g     F .text	000000d4 lseek
08014ff8 g     O .rwdata	00000004 _global_impure_ptr
0800cd90 g     F .text	000005a0 _realloc_r
08016e28 g       *ABS*	00000000 __bss_end
08012210 g     F .text	000000f0 alt_iic_isr_register
08012744 g     F .text	00000104 alt_tick
0800d530 g     F .text	000005c0 .hidden __udivdi3
0800c450 g     F .text	00000184 _fputwc_r
080133e4 g     O .rodata	00000028 __mprec_bigtens
08008744 g     F .text	00000104 __s2b
080106a4 g     F .text	000000a4 .hidden __floatunsidf
08008e20 g     F .text	00000060 __mcmp
08000980 g     F .text	00000244 printGPS
08007228 g     F .text	00000018 __fp_lock_all
080121c4 g     F .text	0000004c alt_ic_irq_enabled
080126ac g     F .text	00000098 alt_alarm_stop
08016b6c g     O .bss	00000004 alt_irq_active
080000ec g     F .exceptions	000000d0 alt_irq_handler
08013dec g     O .rwdata	00000028 alt_dev_null
080004b0 g     F .text	00000070 FloatToLatitudeConversion
08011e38 g     F .text	0000001c alt_dcache_flush_all
08008848 g     F .text	00000068 __hi0bits
0801054c g     F .text	00000088 .hidden __fixdfsi
08016ccc g     O .bss	0000000a longitude2
08015038 g       *ABS*	00000000 __ram_rwdata_end
08015018 g     O .rwdata	00000008 alt_dev_list
08010ff4 g     F .text	000000f8 write
080094ec g     F .text	000000a0 _putc_r
08013548 g       *ABS*	00000000 __ram_rodata_end
080108e4 g     F .text	000000b0 fstat
08016b38 g     O .bss	00000004 latitude2
08016b3c g     O .bss	00000001 directionNS
0800f478 g     F .text	000000e0 .hidden __ledf2
080006e0 g     F .text	000002a0 extractInformation
08000428 g     F .text	00000088 swapEndian
08008b98 g     F .text	00000140 __pow5mult
0800acd8 g     F .text	0000135c ___vfiprintf_internal_r
08016b4c g     O .bss	00000004 __nlocale_changed
0800e1a4 g     F .text	00000008 .hidden __umodsi3
08016e28 g       *ABS*	00000000 end
08011314 g     F .text	000000c4 altera_avalon_jtag_uart_init
08016b34 g     O .bss	00000004 i
08012ef0 g       *ABS*	00000000 __CTOR_LIST__
0c000000 g       *ABS*	00000000 __alt_stack_pointer
08011c70 g     F .text	00000088 alt_avalon_timer_sc_init
08000dfc g     F .text	00000064 .hidden __clzsi2
080119e4 g     F .text	00000218 altera_avalon_jtag_uart_write
08007218 g     F .text	00000004 __sfp_lock_acquire
0800821c g     F .text	000000e8 memchr
080031e8 g     F .text	00001ffc ___vfprintf_internal_r
08000ee8 g     F .text	00000058 _sprintf_r
0800737c g     F .text	000002f0 _free_r
08007864 g     F .text	00000010 __locale_mb_cur_max
08012d28 g     F .text	00000194 __call_exitprocs
08016b48 g     O .bss	00000004 __mlocale_changed
08015004 g     O .rwdata	00000004 __malloc_sbrk_base
080001bc g     F .text	0000003c _start
08016b70 g     O .bss	00000004 _alt_tick_rate
08008cd8 g     F .text	00000148 __lshift
08016b74 g     O .bss	00000004 _alt_nticks
08010d98 g     F .text	000000fc read
08011158 g     F .text	00000058 alt_sys_init
08009994 g     F .text	000001c8 __ssprint_r
08012c14 g     F .text	00000114 __register_exitproc
0800899c g     F .text	000001fc __multiply
08011684 g     F .text	00000068 altera_avalon_jtag_uart_close
08013548 g       *ABS*	00000000 __ram_rwdata_start
08012ef0 g       *ABS*	00000000 __ram_rodata_start
08016c40 g     O .bss	00000028 __malloc_current_mallinfo
08009194 g     F .text	0000013c __d2b
080111b0 g     F .text	00000060 altera_avalon_jtag_uart_read_fd
08000fac g     F .text	00000288 _strtoul_r
08012a0c g     F .text	000000b4 alt_get_fd
0800c224 g     F .text	00000054 _close_r
08012b98 g     F .text	0000007c memcmp
08011270 g     F .text	00000050 altera_avalon_jtag_uart_close_fd
08016e28 g       *ABS*	00000000 __alt_stack_base
080112c0 g     F .text	00000054 altera_avalon_jtag_uart_ioctl_fd
08005208 g     F .text	00000130 __swsetup_r
0800ea48 g     F .text	000008cc .hidden __divdf3
080070d8 g     F .text	00000118 __sfp
080093e8 g     F .text	00000078 __copybits
080139e4 g     O .rwdata	00000408 __malloc_av_
08007224 g     F .text	00000004 __sinit_lock_release
0800f558 g     F .text	00000724 .hidden __muldf3
0800971c g     F .text	00000054 __sread
080128f8 g     F .text	00000114 alt_find_file
08011ea4 g     F .text	000000a4 alt_dev_llist_insert
08010d08 g     F .text	00000020 __malloc_lock
08010ef4 g     F .text	000000b0 sbrk
08001258 g     F .text	00001f90 ___svfprintf_internal_r
08006c60 g     F .text	00000228 _fflush_r
0800c278 g     F .text	000000c4 _calloc_r
08016b28 g       *ABS*	00000000 __bss_start
0800843c g     F .text	00000124 memset
08016cd8 g     O .bss	00000028 longitude
08000c04 g     F .text	000000e8 main
08016b68 g     O .bss	00000004 alt_envp
08016b50 g     O .bss	00000004 __malloc_max_total_mem
08011210 g     F .text	00000060 altera_avalon_jtag_uart_write_fd
0800c1ac g     F .text	0000001c __swbuf
08009850 g     F .text	00000008 __sclose
0c000000 g       *ABS*	00000000 __alt_heap_limit
0800c43c g     F .text	00000014 fclose
080005e4 g     F .text	000000fc getInfo
08005538 g     F .text	00001728 _dtoa_r
08007a74 g     F .text	000007a8 _malloc_r
0800d4a4 g     F .text	00000030 __ascii_wctomb
08015024 g     O .rwdata	00000004 alt_errno
08016b2e g     O .bss	00000003 seconds
0800766c g     F .text	000000b8 _fwalk
0800958c g     F .text	000000c8 putc
0800e0ec g     F .text	00000054 .hidden __divsi3
08007258 g     F .text	00000124 _malloc_trim_r
08012ef0 g       *ABS*	00000000 __CTOR_END__
08009858 g     F .text	000000a4 strcmp
08012ef0 g       *ABS*	00000000 __flash_rodata_start
08012ef0 g       *ABS*	00000000 __DTOR_LIST__
0800f314 g     F .text	00000084 .hidden __nedf2
08016b3d g     O .bss	00000001 directionEW
08011124 g     F .text	00000034 alt_irq_init
08010e94 g     F .text	00000060 alt_release_fd
08000f40 g     F .text	0000006c sprintf
08012f8c g     O .rodata	00000100 .hidden __clz_tab
08016b44 g     O .bss	00000004 _PathLocale
08012b4c g     F .text	00000014 atexit
0800c1c8 g     F .text	0000005c _write_r
08007894 g     F .text	0000001c setlocale
08014ffc g     O .rwdata	00000004 _impure_ptr
08016b60 g     O .bss	00000004 alt_argc
08011fa4 g     F .text	0000005c _do_dtors
08007880 g     F .text	00000008 __locale_cjk_lang
08016d00 g     O .bss	00000028 latitude
08000020 g       .exceptions	00000000 alt_irq_entry
08009018 g     F .text	00000060 __ulp
08007240 g     F .text	00000018 __fp_unlock_all
08015010 g     O .rwdata	00000008 alt_fs_list
08000020 g       *ABS*	00000000 __ram_exceptions_start
080078b0 g     F .text	0000000c localeconv
08000290 g     F .text	00000044 getcharRS232
08000398 g     F .text	00000030 clearGPSData
08012030 g     F .text	00000050 alt_ic_isr_register
08015038 g       *ABS*	00000000 _edata
08016e28 g       *ABS*	00000000 _end
080001bc g       *ABS*	00000000 __ram_exceptions_end
080116ec g     F .text	000000ec altera_avalon_jtag_uart_ioctl
08012120 g     F .text	000000a4 alt_ic_irq_disable
08009778 g     F .text	0000007c __swrite
08015008 g     O .rwdata	00000004 __malloc_trim_threshold
080003c8 g     F .text	00000030 startLogging
08012848 g     F .text	00000020 altera_nios2_qsys_irq_init
08007874 g     F .text	0000000c __locale_msgcharset
08012b60 g     F .text	00000038 exit
08007724 g     F .text	000000b8 _fwalk_reent
08008e80 g     F .text	00000198 __mdiff
0800e140 g     F .text	0000005c .hidden __modsi3
08014ff4 g     O .rwdata	00000004 __ctype_ptr__
0c000000 g       *ABS*	00000000 __alt_data_end
08000020 g     F .exceptions	00000000 alt_exception
0800721c g     F .text	00000004 __sfp_lock_release
08000000 g       *ABS*	00000000 __alt_mem_sdram
0801310e g     O .rodata	00000101 _ctype_
08000318 g     F .text	0000003c Init_GPS
08012ebc g     F .text	00000034 _exit
08011cf8 g     F .text	00000140 alt_alarm_start
08016b2b g     O .bss	00000003 minutes
080078bc g     F .text	000001b8 __smakebuf_r
080098fc g     F .text	00000098 strlen
08012554 g     F .text	00000158 open
0800f398 g     F .text	000000e0 .hidden __gedf2
08016b40 g     O .bss	00000004 lat
0801500c g     O .rwdata	00000004 __wctomb
0800acc0 g     F .text	00000018 __sprint_r
08012000 g     F .text	00000030 alt_icache_flush_all
08016b28 g     O .bss	00000003 hours
0801502c g     O .rwdata	00000004 alt_priority_mask
08012080 g     F .text	000000a0 alt_ic_irq_enable
080051e4 g     F .text	00000024 __vfprintf_internal
0800d4d4 g     F .text	0000005c _wctomb_r
0800fc7c g     F .text	000008d0 .hidden __subdf3
080088b0 g     F .text	000000b0 __lo0bits
08015030 g     O .rwdata	00000008 alt_alarm_list
08011f48 g     F .text	0000005c _do_ctors
0800d3cc g     F .text	000000d8 wcrtomb
08010798 g     F .text	000000d0 close
08010aec g     F .text	00000080 alt_load
0800c5d4 g     F .text	00000058 fputwc
00000000  w      *UND*	00000000 free
08007220 g     F .text	00000004 __sinit_lock_acquire
08008630 g     F .text	00000114 __multadd
08008608 g     F .text	00000028 _Bfree



Disassembly of section .entry:

08000000 <__reset>:
#if NIOS2_ICACHE_SIZE > 0 && defined(ALT_ALLOW_CODE_AT_RESET) && !defined(ALT_SIM_OPTIMIZE)
    /* Assume the instruction cache size is always a power of two. */
#if NIOS2_ICACHE_SIZE > 0x8000
    movhi r2, %hi(NIOS2_ICACHE_SIZE)
#else
    movui r2, NIOS2_ICACHE_SIZE
 8000000:	00840014 	movui	r2,4096
#endif

0:
    initi r2
 8000004:	1001483a 	initi	r2
    addi r2, r2, -NIOS2_ICACHE_LINE_SIZE
 8000008:	10bff804 	addi	r2,r2,-32
    bgt r2, zero, 0b
 800000c:	00bffd16 	blt	zero,r2,8000004 <__alt_data_end+0xfc000004>
 * Jump to the _start entry point in the .text section if reset code
 * is allowed or if optimizing for RTL simulation.
 */
#if defined(ALT_ALLOW_CODE_AT_RESET) || defined(ALT_SIM_OPTIMIZE)
    /* Jump to the _start entry point in the .text section. */
    movhi r1, %hi(_start)
 8000010:	00420034 	movhi	at,2048
    ori r1, r1, %lo(_start)
 8000014:	08406f14 	ori	at,at,444
    jmp r1
 8000018:	0800683a 	jmp	at
 800001c:	00000000 	call	0 <__reset-0x8000000>

Disassembly of section .exceptions:

08000020 <alt_exception>:

#else /* ALT_EXCEPTION_STACK disabled */
        /* 
         * Reserve space on normal stack for registers about to be pushed.
         */
        addi  sp, sp, -76
 8000020:	deffed04 	addi	sp,sp,-76
         * documentation for details).
         *
         * Leave a gap in the stack frame at 4(sp) for the muldiv handler to
         * store zero into.
         */
        stw   ra,  0(sp)
 8000024:	dfc00015 	stw	ra,0(sp)
        stw   r1,   8(sp)
 8000028:	d8400215 	stw	at,8(sp)
        stw   r2,  12(sp)
 800002c:	d8800315 	stw	r2,12(sp)
        stw   r3,  16(sp)
 8000030:	d8c00415 	stw	r3,16(sp)
        stw   r4,  20(sp)
 8000034:	d9000515 	stw	r4,20(sp)
        stw   r5,  24(sp)
 8000038:	d9400615 	stw	r5,24(sp)
        stw   r6,  28(sp)
 800003c:	d9800715 	stw	r6,28(sp)
        stw   r7,  32(sp)
 8000040:	d9c00815 	stw	r7,32(sp)
        rdctl r5, estatus   /* Read early to avoid usage stall */
 8000044:	000b307a 	rdctl	r5,estatus
        stw   r8,  36(sp)
 8000048:	da000915 	stw	r8,36(sp)
        stw   r9,  40(sp)
 800004c:	da400a15 	stw	r9,40(sp)
        stw   r10, 44(sp)
 8000050:	da800b15 	stw	r10,44(sp)
        stw   r11, 48(sp)
 8000054:	dac00c15 	stw	r11,48(sp)
        stw   r12, 52(sp)
 8000058:	db000d15 	stw	r12,52(sp)
        stw   r13, 56(sp)
 800005c:	db400e15 	stw	r13,56(sp)
        stw   r14, 60(sp)
 8000060:	db800f15 	stw	r14,60(sp)
        stw   r15, 64(sp)
 8000064:	dbc01015 	stw	r15,64(sp)
        /*
         * ea-4 contains the address of the instruction being executed
         * when the exception occured. For interrupt exceptions, we will
         * will be re-issue the isntruction. Store it in 72(sp)
         */
        stw   r5,  68(sp)  /* estatus */
 8000068:	d9401115 	stw	r5,68(sp)
        addi  r15, ea, -4  /* instruction that caused exception */
 800006c:	ebffff04 	addi	r15,ea,-4
        stw   r15,  72(sp)
 8000070:	dbc01215 	stw	r15,72(sp)
#else
        /*
         * Test to see if the exception was a software exception or caused 
         * by an external interrupt, and vector accordingly.
         */
        rdctl r4, ipending
 8000074:	0009313a 	rdctl	r4,ipending
        andi  r2, r5, 1
 8000078:	2880004c 	andi	r2,r5,1
        beq   r2, zero, .Lnot_irq
 800007c:	10000326 	beq	r2,zero,800008c <alt_exception+0x6c>
        beq   r4, zero, .Lnot_irq
 8000080:	20000226 	beq	r4,zero,800008c <alt_exception+0x6c>
        /*
         * Now that all necessary registers have been preserved, call 
         * alt_irq_handler() to process the interrupts.
         */

        call alt_irq_handler
 8000084:	80000ec0 	call	80000ec <alt_irq_handler>

        .section .exceptions.irqreturn, "xa"

        br    .Lexception_exit
 8000088:	00000306 	br	8000098 <alt_exception_unknown+0x4>
         * upon completion, so we write ea (address of instruction *after*
         * the one where the exception occured) into 72(sp). The actual
         * instruction that caused the exception is written in r2, which these
         * handlers will utilize.
         */
        stw   ea,  72(sp)  /* Don't re-issue */
 800008c:	df401215 	stw	ea,72(sp)
        ldw   r2, -4(ea)   /* Instruction that caused exception */
 8000090:	e8bfff17 	ldw	r2,-4(ea)

08000094 <alt_exception_unknown>:
#ifdef NIOS2_HAS_DEBUG_STUB
       /*
        *  Either tell the user now (if there is a debugger attached) or go into
        *  the debug monitor which will loop until a debugger is attached.
        */
        break
 8000094:	003da03a 	break	0
        /* 
         * Restore the saved registers, so that all general purpose registers 
         * have been restored to their state at the time the interrupt occured.
         */

        ldw   r5,  68(sp)
 8000098:	d9401117 	ldw	r5,68(sp)
        ldw   ea,  72(sp)  /* This becomes the PC once eret is executed */
 800009c:	df401217 	ldw	ea,72(sp)
        ldw   ra,   0(sp)
 80000a0:	dfc00017 	ldw	ra,0(sp)

        wrctl estatus, r5
 80000a4:	2801707a 	wrctl	estatus,r5

        ldw   r1,   8(sp)
 80000a8:	d8400217 	ldw	at,8(sp)
        ldw   r2,  12(sp)
 80000ac:	d8800317 	ldw	r2,12(sp)
        ldw   r3,  16(sp)
 80000b0:	d8c00417 	ldw	r3,16(sp)
        ldw   r4,  20(sp)
 80000b4:	d9000517 	ldw	r4,20(sp)
        ldw   r5,  24(sp)
 80000b8:	d9400617 	ldw	r5,24(sp)
        ldw   r6,  28(sp)
 80000bc:	d9800717 	ldw	r6,28(sp)
        ldw   r7,  32(sp)
 80000c0:	d9c00817 	ldw	r7,32(sp)

#if defined(ALT_EXCEPTION_STACK) && defined(ALT_STACK_CHECK)
        ldw   et, %gprel(alt_exception_old_stack_limit)(gp)
#endif

        ldw   r8,  36(sp)
 80000c4:	da000917 	ldw	r8,36(sp)
        ldw   r9,  40(sp)
 80000c8:	da400a17 	ldw	r9,40(sp)
        ldw   r10, 44(sp)
 80000cc:	da800b17 	ldw	r10,44(sp)
        ldw   r11, 48(sp)
 80000d0:	dac00c17 	ldw	r11,48(sp)
        ldw   r12, 52(sp)
 80000d4:	db000d17 	ldw	r12,52(sp)
        ldw   r13, 56(sp)
 80000d8:	db400e17 	ldw	r13,56(sp)
        ldw   r14, 60(sp)
 80000dc:	db800f17 	ldw	r14,60(sp)
        ldw   r15, 64(sp)
 80000e0:	dbc01017 	ldw	r15,64(sp)
        stw   et, %gprel(alt_stack_limit_value)(gp)
        stw   zero, %gprel(alt_exception_old_stack_limit)(gp)
#endif /* ALT_STACK_CHECK */
        ldw   sp,  76(sp)
#else /* ALT_EXCEPTION_STACK disabled */
        addi  sp, sp, 76
 80000e4:	dec01304 	addi	sp,sp,76

        /*
         * Return to the interrupted instruction.
         */

        eret
 80000e8:	ef80083a 	eret

080000ec <alt_irq_handler>:
 * instruction is present if the macro ALT_CI_INTERRUPT_VECTOR defined.
 */

void alt_irq_handler (void) __attribute__ ((section (".exceptions")));
void alt_irq_handler (void)
{
 80000ec:	defff904 	addi	sp,sp,-28
 80000f0:	dfc00615 	stw	ra,24(sp)
 80000f4:	df000515 	stw	fp,20(sp)
 80000f8:	df000504 	addi	fp,sp,20
  
  /*
   * Notify the operating system that we are at interrupt level.
   */ 
  
  ALT_OS_INT_ENTER();
 80000fc:	0001883a 	nop
#ifndef NIOS2_EIC_PRESENT
static ALT_INLINE alt_u32 ALT_ALWAYS_INLINE alt_irq_pending (void)
{
  alt_u32 active;

  NIOS2_READ_IPENDING (active);
 8000100:	0005313a 	rdctl	r2,ipending
 8000104:	e0bffe15 	stw	r2,-8(fp)

  return active;
 8000108:	e0bffe17 	ldw	r2,-8(fp)
   * Consider the case where the high priority interupt is asserted during
   * the interrupt entry sequence for a lower priority interrupt to see why
   * this is the case.
   */

  active = alt_irq_pending ();
 800010c:	e0bffb15 	stw	r2,-20(fp)

  do
  {
    i = 0;
 8000110:	e03ffd15 	stw	zero,-12(fp)
    mask = 1;
 8000114:	00800044 	movi	r2,1
 8000118:	e0bffc15 	stw	r2,-16(fp)
     * called to clear the interrupt condition.
     */

    do
    {
      if (active & mask)
 800011c:	e0fffb17 	ldw	r3,-20(fp)
 8000120:	e0bffc17 	ldw	r2,-16(fp)
 8000124:	1884703a 	and	r2,r3,r2
 8000128:	10001426 	beq	r2,zero,800017c <alt_irq_handler+0x90>
      { 
#ifdef ALT_ENHANCED_INTERRUPT_API_PRESENT
        alt_irq[i].handler(alt_irq[i].context); 
 800012c:	00820074 	movhi	r2,2049
 8000130:	109b4a04 	addi	r2,r2,27944
 8000134:	e0fffd17 	ldw	r3,-12(fp)
 8000138:	180690fa 	slli	r3,r3,3
 800013c:	10c5883a 	add	r2,r2,r3
 8000140:	10c00017 	ldw	r3,0(r2)
 8000144:	00820074 	movhi	r2,2049
 8000148:	109b4a04 	addi	r2,r2,27944
 800014c:	e13ffd17 	ldw	r4,-12(fp)
 8000150:	200890fa 	slli	r4,r4,3
 8000154:	1105883a 	add	r2,r2,r4
 8000158:	10800104 	addi	r2,r2,4
 800015c:	10800017 	ldw	r2,0(r2)
 8000160:	1009883a 	mov	r4,r2
 8000164:	183ee83a 	callr	r3
#else
        alt_irq[i].handler(alt_irq[i].context, i); 
#endif
        break;
 8000168:	0001883a 	nop
#ifndef NIOS2_EIC_PRESENT
static ALT_INLINE alt_u32 ALT_ALWAYS_INLINE alt_irq_pending (void)
{
  alt_u32 active;

  NIOS2_READ_IPENDING (active);
 800016c:	0005313a 	rdctl	r2,ipending
 8000170:	e0bfff15 	stw	r2,-4(fp)

  return active;
 8000174:	e0bfff17 	ldw	r2,-4(fp)
 8000178:	00000706 	br	8000198 <alt_irq_handler+0xac>
      }
      mask <<= 1;
 800017c:	e0bffc17 	ldw	r2,-16(fp)
 8000180:	1085883a 	add	r2,r2,r2
 8000184:	e0bffc15 	stw	r2,-16(fp)
      i++;
 8000188:	e0bffd17 	ldw	r2,-12(fp)
 800018c:	10800044 	addi	r2,r2,1
 8000190:	e0bffd15 	stw	r2,-12(fp)

    } while (1);
 8000194:	003fe106 	br	800011c <__alt_data_end+0xfc00011c>

    active = alt_irq_pending ();
 8000198:	e0bffb15 	stw	r2,-20(fp)
    
  } while (active);
 800019c:	e0bffb17 	ldw	r2,-20(fp)
 80001a0:	103fdb1e 	bne	r2,zero,8000110 <__alt_data_end+0xfc000110>

  /*
   * Notify the operating system that interrupt processing is complete.
   */ 

  ALT_OS_INT_EXIT();
 80001a4:	0001883a 	nop
}
 80001a8:	e037883a 	mov	sp,fp
 80001ac:	dfc00117 	ldw	ra,4(sp)
 80001b0:	df000017 	ldw	fp,0(sp)
 80001b4:	dec00204 	addi	sp,sp,8
 80001b8:	f800283a 	ret

Disassembly of section .text:

080001bc <_start>:

    /*
     * Now that the caches are initialized, set up the stack pointer and global pointer.
     * The values provided by the linker are assumed to be correctly aligned.
     */
    movhi sp, %hi(__alt_stack_pointer)
 80001bc:	06c30034 	movhi	sp,3072
    ori sp, sp, %lo(__alt_stack_pointer)
 80001c0:	dec00014 	ori	sp,sp,0
    movhi gp, %hi(_gp)
 80001c4:	06820074 	movhi	gp,2049
    ori gp, gp, %lo(_gp)
 80001c8:	d6b3fd14 	ori	gp,gp,53236
 */
#ifndef ALT_SIM_OPTIMIZE
    /* Log that the BSS is about to be cleared. */
    ALT_LOG_PUTS(alt_log_msg_bss)

    movhi r2, %hi(__bss_start)
 80001cc:	00820074 	movhi	r2,2049
    ori r2, r2, %lo(__bss_start)
 80001d0:	109aca14 	ori	r2,r2,27432

    movhi r3, %hi(__bss_end)
 80001d4:	00c20074 	movhi	r3,2049
    ori r3, r3, %lo(__bss_end)
 80001d8:	18db8a14 	ori	r3,r3,28200

    beq r2, r3, 1f
 80001dc:	10c00326 	beq	r2,r3,80001ec <_start+0x30>

0:
    stw zero, (r2)
 80001e0:	10000015 	stw	zero,0(r2)
    addi r2, r2, 4
 80001e4:	10800104 	addi	r2,r2,4
    bltu r2, r3, 0b
 80001e8:	10fffd36 	bltu	r2,r3,80001e0 <__alt_data_end+0xfc0001e0>
     * section aren't defined until alt_load() has been called).
     */
    mov   et, zero
#endif

    call alt_load
 80001ec:	8010aec0 	call	8010aec <alt_load>

    /* Log that alt_main is about to be called. */
    ALT_LOG_PUTS(alt_log_msg_alt_main)

    /* Call the C entry point. It should never return. */
    call alt_main
 80001f0:	8010c900 	call	8010c90 <alt_main>

080001f4 <alt_after_alt_main>:

    /* Wait in infinite loop in case alt_main does return. */
alt_after_alt_main:
    br alt_after_alt_main
 80001f4:	003fff06 	br	80001f4 <__alt_data_end+0xfc0001f4>

080001f8 <Init_RS232>:
int i = 0;



void Init_RS232(void)
{
 80001f8:	deffff04 	addi	sp,sp,-4
 80001fc:	df000015 	stw	fp,0(sp)
 8000200:	d839883a 	mov	fp,sp
 // set up 6850 Control Register to utilise a divide by 16 clock,
 // set RTS low, use 8 bits of data, no parity, 1 stop bit,
 // transmitter interrupt disabled
 // program baud rate generator to use 115k baud
	RS232_Control = 0x55;
 8000204:	00a10034 	movhi	r2,33792
 8000208:	10808004 	addi	r2,r2,512
 800020c:	00c01544 	movi	r3,85
 8000210:	10c00005 	stb	r3,0(r2)
	RS232_Baud = 0x01;
 8000214:	00a10034 	movhi	r2,33792
 8000218:	10808104 	addi	r2,r2,516
 800021c:	00c00044 	movi	r3,1
 8000220:	10c00005 	stb	r3,0(r2)
}
 8000224:	e037883a 	mov	sp,fp
 8000228:	df000017 	ldw	fp,0(sp)
 800022c:	dec00104 	addi	sp,sp,4
 8000230:	f800283a 	ret

08000234 <putcharRS232>:


int putcharRS232(int c)
{
 8000234:	defffd04 	addi	sp,sp,-12
 8000238:	dfc00215 	stw	ra,8(sp)
 800023c:	df000115 	stw	fp,4(sp)
 8000240:	df000104 	addi	fp,sp,4
 8000244:	e13fff15 	stw	r4,-4(fp)
 // poll Tx bit in 6850 status register. Wait for it to become '1'
 // write 'c' to the 6850 TxData register to output the character
 // Bit 1 will be set to 1 when ready to take a value

	while(!RS232_Status & 0x02 == 0x02)
 8000248:	00000206 	br	8000254 <putcharRS232+0x20>
     putcharRS232(1);
 800024c:	01000044 	movi	r4,1
 8000250:	80002340 	call	8000234 <putcharRS232>
{
 // poll Tx bit in 6850 status register. Wait for it to become '1'
 // write 'c' to the 6850 TxData register to output the character
 // Bit 1 will be set to 1 when ready to take a value

	while(!RS232_Status & 0x02 == 0x02)
 8000254:	00a10034 	movhi	r2,33792
 8000258:	10808004 	addi	r2,r2,512
 800025c:	10800003 	ldbu	r2,0(r2)
 8000260:	10803fcc 	andi	r2,r2,255
 8000264:	103ff926 	beq	r2,zero,800024c <__alt_data_end+0xfc00024c>
     putcharRS232(1);

	 RS232_TxData = c;
 8000268:	00a10034 	movhi	r2,33792
 800026c:	10808084 	addi	r2,r2,514
 8000270:	e0ffff17 	ldw	r3,-4(fp)
 8000274:	10c00005 	stb	r3,0(r2)
	 return c;
 8000278:	e0bfff17 	ldw	r2,-4(fp)
}
 800027c:	e037883a 	mov	sp,fp
 8000280:	dfc00117 	ldw	ra,4(sp)
 8000284:	df000017 	ldw	fp,0(sp)
 8000288:	dec00204 	addi	sp,sp,8
 800028c:	f800283a 	ret

08000290 <getcharRS232>:



int getcharRS232( void )
{
 8000290:	defffe04 	addi	sp,sp,-8
 8000294:	dfc00115 	stw	ra,4(sp)
 8000298:	df000015 	stw	fp,0(sp)
 800029c:	d839883a 	mov	fp,sp
 // poll Rx bit in 6850 status register. Wait for it to become '1'
 // read received character from 6850 RxData register.
	 while(RS232_Status & 0x01 != 1)
 80002a0:	0001883a 	nop
 80002a4:	00a10034 	movhi	r2,33792
 80002a8:	10808004 	addi	r2,r2,512
 80002ac:	10800003 	ldbu	r2,0(r2)
     getcharRS232();

	 printf("\nData here");
 80002b0:	01020074 	movhi	r4,2049
 80002b4:	210bbc04 	addi	r4,r4,12016
 80002b8:	8000e8c0 	call	8000e8c <printf>
	 return (1);
 80002bc:	00800044 	movi	r2,1
}
 80002c0:	e037883a 	mov	sp,fp
 80002c4:	dfc00117 	ldw	ra,4(sp)
 80002c8:	df000017 	ldw	fp,0(sp)
 80002cc:	dec00204 	addi	sp,sp,8
 80002d0:	f800283a 	ret

080002d4 <RS232TestForReceivedData>:

// the following function polls the 6850 to determine if any character
// has been received. It doesn't wait for one, or read it, it simply tests
// to see if one is available to read
int RS232TestForReceivedData(void)
{
 80002d4:	defffe04 	addi	sp,sp,-8
 80002d8:	dfc00115 	stw	ra,4(sp)
 80002dc:	df000015 	stw	fp,0(sp)
 80002e0:	d839883a 	mov	fp,sp
 // Test Rx bit in 6850 serial comms chip status register
 // if RX bit is set, return TRUE, otherwise return FALSE

	putcharRS232(1);
 80002e4:	01000044 	movi	r4,1
 80002e8:	80002340 	call	8000234 <putcharRS232>
	if(getcharRS232() == 1)
 80002ec:	80002900 	call	8000290 <getcharRS232>
 80002f0:	10800058 	cmpnei	r2,r2,1
 80002f4:	1000021e 	bne	r2,zero,8000300 <RS232TestForReceivedData+0x2c>
		return 1;
 80002f8:	00800044 	movi	r2,1
 80002fc:	00000106 	br	8000304 <RS232TestForReceivedData+0x30>

	else
		return (0);
 8000300:	0005883a 	mov	r2,zero
}
 8000304:	e037883a 	mov	sp,fp
 8000308:	dfc00117 	ldw	ra,4(sp)
 800030c:	df000017 	ldw	fp,0(sp)
 8000310:	dec00204 	addi	sp,sp,8
 8000314:	f800283a 	ret

08000318 <Init_GPS>:



//GPS
void Init_GPS(void){
 8000318:	deffff04 	addi	sp,sp,-4
 800031c:	df000015 	stw	fp,0(sp)
 8000320:	d839883a 	mov	fp,sp
		GPS_Control = 0x55;
 8000324:	00a10034 	movhi	r2,33792
 8000328:	10808404 	addi	r2,r2,528
 800032c:	00c01544 	movi	r3,85
 8000330:	10c00005 	stb	r3,0(r2)
		GPS_Baud = 0x05;
 8000334:	00a10034 	movhi	r2,33792
 8000338:	10808504 	addi	r2,r2,532
 800033c:	00c00144 	movi	r3,5
 8000340:	10c00005 	stb	r3,0(r2)
}
 8000344:	e037883a 	mov	sp,fp
 8000348:	df000017 	ldw	fp,0(sp)
 800034c:	dec00104 	addi	sp,sp,4
 8000350:	f800283a 	ret

08000354 <getcharGPS>:


//Receiving from GPS
char getcharGPS(){
 8000354:	deffff04 	addi	sp,sp,-4
 8000358:	df000015 	stw	fp,0(sp)
 800035c:	d839883a 	mov	fp,sp

while((GPS_Status & 0x01) != 1){
 8000360:	0001883a 	nop
 8000364:	00a10034 	movhi	r2,33792
 8000368:	10808404 	addi	r2,r2,528
 800036c:	10800003 	ldbu	r2,0(r2)
 8000370:	10803fcc 	andi	r2,r2,255
 8000374:	1080004c 	andi	r2,r2,1
 8000378:	103ffa26 	beq	r2,zero,8000364 <__alt_data_end+0xfc000364>
}

return GPS_RxData;
 800037c:	00a10034 	movhi	r2,33792
 8000380:	10808484 	addi	r2,r2,530
 8000384:	10800003 	ldbu	r2,0(r2)
}
 8000388:	e037883a 	mov	sp,fp
 800038c:	df000017 	ldw	fp,0(sp)
 8000390:	dec00104 	addi	sp,sp,4
 8000394:	f800283a 	ret

08000398 <clearGPSData>:

void clearGPSData(){
 8000398:	deffff04 	addi	sp,sp,-4
 800039c:	df000015 	stw	fp,0(sp)
 80003a0:	d839883a 	mov	fp,sp
	GPS_TxData = "$PMTK184,1*22\r\n";
 80003a4:	00a10034 	movhi	r2,33792
 80003a8:	10808484 	addi	r2,r2,530
 80003ac:	00c20074 	movhi	r3,2049
 80003b0:	18cbbf04 	addi	r3,r3,12028
 80003b4:	10c00005 	stb	r3,0(r2)
}
 80003b8:	e037883a 	mov	sp,fp
 80003bc:	df000017 	ldw	fp,0(sp)
 80003c0:	dec00104 	addi	sp,sp,4
 80003c4:	f800283a 	ret

080003c8 <startLogging>:

void startLogging(){
 80003c8:	deffff04 	addi	sp,sp,-4
 80003cc:	df000015 	stw	fp,0(sp)
 80003d0:	d839883a 	mov	fp,sp
	GPS_TxData = "$PMTK185,0*22\r\n";
 80003d4:	00a10034 	movhi	r2,33792
 80003d8:	10808484 	addi	r2,r2,530
 80003dc:	00c20074 	movhi	r3,2049
 80003e0:	18cbc304 	addi	r3,r3,12044
 80003e4:	10c00005 	stb	r3,0(r2)
}
 80003e8:	e037883a 	mov	sp,fp
 80003ec:	df000017 	ldw	fp,0(sp)
 80003f0:	dec00104 	addi	sp,sp,4
 80003f4:	f800283a 	ret

080003f8 <outputGPSData>:

void outputGPSData(){
 80003f8:	deffff04 	addi	sp,sp,-4
 80003fc:	df000015 	stw	fp,0(sp)
 8000400:	d839883a 	mov	fp,sp
	GPS_TxData = "$PMTK622,1*29\r\n";
 8000404:	00a10034 	movhi	r2,33792
 8000408:	10808484 	addi	r2,r2,530
 800040c:	00c20074 	movhi	r3,2049
 8000410:	18cbc704 	addi	r3,r3,12060
 8000414:	10c00005 	stb	r3,0(r2)
}
 8000418:	e037883a 	mov	sp,fp
 800041c:	df000017 	ldw	fp,0(sp)
 8000420:	dec00104 	addi	sp,sp,4
 8000424:	f800283a 	ret

08000428 <swapEndian>:


int swapEndian(char *s)
{
 8000428:	defffc04 	addi	sp,sp,-16
 800042c:	dfc00315 	stw	ra,12(sp)
 8000430:	df000215 	stw	fp,8(sp)
 8000434:	dc000115 	stw	r16,4(sp)
 8000438:	df000204 	addi	fp,sp,8
 800043c:	e13ffe15 	stw	r4,-8(fp)
register int val;
val = strtoul(s, NULL, 16);
 8000440:	e13ffe17 	ldw	r4,-8(fp)
 8000444:	000b883a 	mov	r5,zero
 8000448:	01800404 	movi	r6,16
 800044c:	80012340 	call	8001234 <strtoul>
 8000450:	1021883a 	mov	r16,r2
val = ((val << 8) & 0xFF00FF00) | ((val >> 8) & 0xFF00FF );
 8000454:	8004923a 	slli	r2,r16,8
 8000458:	1007883a 	mov	r3,r2
 800045c:	00bfc074 	movhi	r2,65281
 8000460:	10bfc004 	addi	r2,r2,-256
 8000464:	1886703a 	and	r3,r3,r2
 8000468:	8005d23a 	srai	r2,r16,8
 800046c:	1009883a 	mov	r4,r2
 8000470:	00803ff4 	movhi	r2,255
 8000474:	10803fc4 	addi	r2,r2,255
 8000478:	2084703a 	and	r2,r4,r2
 800047c:	1884b03a 	or	r2,r3,r2
 8000480:	1021883a 	mov	r16,r2
val = (val << 16) | ((val >> 16) & 0xFFFF);
 8000484:	8004943a 	slli	r2,r16,16
 8000488:	8007883a 	mov	r3,r16
 800048c:	1806d43a 	srli	r3,r3,16
 8000490:	10e0b03a 	or	r16,r2,r3
return val ;
 8000494:	8005883a 	mov	r2,r16
}
 8000498:	e6ffff04 	addi	sp,fp,-4
 800049c:	dfc00217 	ldw	ra,8(sp)
 80004a0:	df000117 	ldw	fp,4(sp)
 80004a4:	dc000017 	ldw	r16,0(sp)
 80004a8:	dec00304 	addi	sp,sp,12
 80004ac:	f800283a 	ret

080004b0 <FloatToLatitudeConversion>:



char *FloatToLatitudeConversion(int x) //output format is xx.yyyy
{
 80004b0:	defffb04 	addi	sp,sp,-20
 80004b4:	dfc00415 	stw	ra,16(sp)
 80004b8:	df000315 	stw	fp,12(sp)
 80004bc:	df000304 	addi	fp,sp,12
 80004c0:	e13fff15 	stw	r4,-4(fp)
static char buff[100] ;
float *ptr = (float *)(&x) ; // cast int to float
 80004c4:	e0bfff04 	addi	r2,fp,-4
 80004c8:	e0bffd15 	stw	r2,-12(fp)
float f = *ptr ; // get the float
 80004cc:	e0bffd17 	ldw	r2,-12(fp)
 80004d0:	10800017 	ldw	r2,0(r2)
 80004d4:	e0bffe15 	stw	r2,-8(fp)
sprintf(buff, "%2.4f", f); // write in string to an array
 80004d8:	e13ffe17 	ldw	r4,-8(fp)
 80004dc:	8000cec0 	call	8000cec <__extendsfdf2>
 80004e0:	100f883a 	mov	r7,r2
 80004e4:	1811883a 	mov	r8,r3
 80004e8:	01020074 	movhi	r4,2049
 80004ec:	211ade04 	addi	r4,r4,27512
 80004f0:	01420074 	movhi	r5,2049
 80004f4:	294bcb04 	addi	r5,r5,12076
 80004f8:	380d883a 	mov	r6,r7
 80004fc:	400f883a 	mov	r7,r8
 8000500:	8000f400 	call	8000f40 <sprintf>
return buff ;
 8000504:	00820074 	movhi	r2,2049
 8000508:	109ade04 	addi	r2,r2,27512
}
 800050c:	e037883a 	mov	sp,fp
 8000510:	dfc00117 	ldw	ra,4(sp)
 8000514:	df000017 	ldw	fp,0(sp)
 8000518:	dec00204 	addi	sp,sp,8
 800051c:	f800283a 	ret

08000520 <FloatToLongitudeConversion>:


char *FloatToLongitudeConversion(int x) // output format is (-)xxx.yyyy
{
 8000520:	defffb04 	addi	sp,sp,-20
 8000524:	dfc00415 	stw	ra,16(sp)
 8000528:	df000315 	stw	fp,12(sp)
 800052c:	df000304 	addi	fp,sp,12
 8000530:	e13fff15 	stw	r4,-4(fp)
static char buff[100] ;
float *ptr = (float *)(&x) ;
 8000534:	e0bfff04 	addi	r2,fp,-4
 8000538:	e0bffd15 	stw	r2,-12(fp)
float f = *ptr ;
 800053c:	e0bffd17 	ldw	r2,-12(fp)
 8000540:	10800017 	ldw	r2,0(r2)
 8000544:	e0bffe15 	stw	r2,-8(fp)
sprintf(buff, "%3.4f", f);
 8000548:	e13ffe17 	ldw	r4,-8(fp)
 800054c:	8000cec0 	call	8000cec <__extendsfdf2>
 8000550:	100f883a 	mov	r7,r2
 8000554:	1811883a 	mov	r8,r3
 8000558:	01020074 	movhi	r4,2049
 800055c:	211af704 	addi	r4,r4,27612
 8000560:	01420074 	movhi	r5,2049
 8000564:	294bcd04 	addi	r5,r5,12084
 8000568:	380d883a 	mov	r6,r7
 800056c:	400f883a 	mov	r7,r8
 8000570:	8000f400 	call	8000f40 <sprintf>
return buff ;
 8000574:	00820074 	movhi	r2,2049
 8000578:	109af704 	addi	r2,r2,27612
}
 800057c:	e037883a 	mov	sp,fp
 8000580:	dfc00117 	ldw	ra,4(sp)
 8000584:	df000017 	ldw	fp,0(sp)
 8000588:	dec00204 	addi	sp,sp,8
 800058c:	f800283a 	ret

08000590 <intialiseArray>:

void intialiseArray(){
 8000590:	defffe04 	addi	sp,sp,-8
 8000594:	df000115 	stw	fp,4(sp)
 8000598:	df000104 	addi	fp,sp,4
	int j;
	for(j = 0; j < 100; j++){
 800059c:	e03fff15 	stw	zero,-4(fp)
 80005a0:	00000906 	br	80005c8 <intialiseArray+0x38>
		arr[j] = '-';
 80005a4:	00820074 	movhi	r2,2049
 80005a8:	109b1a04 	addi	r2,r2,27752
 80005ac:	e0ffff17 	ldw	r3,-4(fp)
 80005b0:	10c5883a 	add	r2,r2,r3
 80005b4:	00c00b44 	movi	r3,45
 80005b8:	10c00005 	stb	r3,0(r2)
return buff ;
}

void intialiseArray(){
	int j;
	for(j = 0; j < 100; j++){
 80005bc:	e0bfff17 	ldw	r2,-4(fp)
 80005c0:	10800044 	addi	r2,r2,1
 80005c4:	e0bfff15 	stw	r2,-4(fp)
 80005c8:	e0bfff17 	ldw	r2,-4(fp)
 80005cc:	10801910 	cmplti	r2,r2,100
 80005d0:	103ff41e 	bne	r2,zero,80005a4 <__alt_data_end+0xfc0005a4>
		arr[j] = '-';
	}
}
 80005d4:	e037883a 	mov	sp,fp
 80005d8:	df000017 	ldw	fp,0(sp)
 80005dc:	dec00104 	addi	sp,sp,4
 80005e0:	f800283a 	ret

080005e4 <getInfo>:

void getInfo(){
 80005e4:	defffd04 	addi	sp,sp,-12
 80005e8:	dfc00215 	stw	ra,8(sp)
 80005ec:	df000115 	stw	fp,4(sp)
 80005f0:	df000104 	addi	fp,sp,4
	char count;
	while(1){

		count = getcharGPS();
 80005f4:	80003540 	call	8000354 <getcharGPS>
 80005f8:	e0bfff05 	stb	r2,-4(fp)
		if(count == '$'){
 80005fc:	e0bfff07 	ldb	r2,-4(fp)
 8000600:	10800918 	cmpnei	r2,r2,36
 8000604:	1000301e 	bne	r2,zero,80006c8 <getInfo+0xe4>
			if(getcharGPS() == 'G')
 8000608:	80003540 	call	8000354 <getcharGPS>
 800060c:	10803fcc 	andi	r2,r2,255
 8000610:	1080201c 	xori	r2,r2,128
 8000614:	10bfe004 	addi	r2,r2,-128
 8000618:	108011d8 	cmpnei	r2,r2,71
 800061c:	10002a1e 	bne	r2,zero,80006c8 <getInfo+0xe4>
				if(getcharGPS() == 'P')
 8000620:	80003540 	call	8000354 <getcharGPS>
 8000624:	10803fcc 	andi	r2,r2,255
 8000628:	1080201c 	xori	r2,r2,128
 800062c:	10bfe004 	addi	r2,r2,-128
 8000630:	10801418 	cmpnei	r2,r2,80
 8000634:	1000241e 	bne	r2,zero,80006c8 <getInfo+0xe4>
					if(getcharGPS() == 'G')
 8000638:	80003540 	call	8000354 <getcharGPS>
 800063c:	10803fcc 	andi	r2,r2,255
 8000640:	1080201c 	xori	r2,r2,128
 8000644:	10bfe004 	addi	r2,r2,-128
 8000648:	108011d8 	cmpnei	r2,r2,71
 800064c:	10001e1e 	bne	r2,zero,80006c8 <getInfo+0xe4>
						if(getcharGPS() == 'G')
 8000650:	80003540 	call	8000354 <getcharGPS>
 8000654:	10803fcc 	andi	r2,r2,255
 8000658:	1080201c 	xori	r2,r2,128
 800065c:	10bfe004 	addi	r2,r2,-128
 8000660:	108011d8 	cmpnei	r2,r2,71
 8000664:	1000181e 	bne	r2,zero,80006c8 <getInfo+0xe4>
							if(getcharGPS() == 'A'){
 8000668:	80003540 	call	8000354 <getcharGPS>
 800066c:	10803fcc 	andi	r2,r2,255
 8000670:	1080201c 	xori	r2,r2,128
 8000674:	10bfe004 	addi	r2,r2,-128
 8000678:	10801058 	cmpnei	r2,r2,65
 800067c:	1000121e 	bne	r2,zero,80006c8 <getInfo+0xe4>
								count = getcharGPS();
 8000680:	80003540 	call	8000354 <getcharGPS>
 8000684:	e0bfff05 	stb	r2,-4(fp)
								while(count != '\n'){
 8000688:	00000b06 	br	80006b8 <getInfo+0xd4>
									arr[i] =  count;
 800068c:	d0e6d017 	ldw	r3,-25792(gp)
 8000690:	00820074 	movhi	r2,2049
 8000694:	109b1a04 	addi	r2,r2,27752
 8000698:	10c5883a 	add	r2,r2,r3
 800069c:	e0ffff03 	ldbu	r3,-4(fp)
 80006a0:	10c00005 	stb	r3,0(r2)
									count = getcharGPS();
 80006a4:	80003540 	call	8000354 <getcharGPS>
 80006a8:	e0bfff05 	stb	r2,-4(fp)
									i++;
 80006ac:	d0a6d017 	ldw	r2,-25792(gp)
 80006b0:	10800044 	addi	r2,r2,1
 80006b4:	d0a6d015 	stw	r2,-25792(gp)
				if(getcharGPS() == 'P')
					if(getcharGPS() == 'G')
						if(getcharGPS() == 'G')
							if(getcharGPS() == 'A'){
								count = getcharGPS();
								while(count != '\n'){
 80006b8:	e0bfff07 	ldb	r2,-4(fp)
 80006bc:	10800298 	cmpnei	r2,r2,10
 80006c0:	103ff21e 	bne	r2,zero,800068c <__alt_data_end+0xfc00068c>
									arr[i] =  count;
									count = getcharGPS();
									i++;
								}
										break;
 80006c4:	00000106 	br	80006cc <getInfo+0xe8>
							}
		}

	}
 80006c8:	003fca06 	br	80005f4 <__alt_data_end+0xfc0005f4>

}
 80006cc:	e037883a 	mov	sp,fp
 80006d0:	dfc00117 	ldw	ra,4(sp)
 80006d4:	df000017 	ldw	fp,0(sp)
 80006d8:	dec00204 	addi	sp,sp,8
 80006dc:	f800283a 	ret

080006e0 <extractInformation>:


void extractInformation(){
 80006e0:	defffb04 	addi	sp,sp,-20
 80006e4:	df000415 	stw	fp,16(sp)
 80006e8:	df000404 	addi	fp,sp,16


	char end = '-';
 80006ec:	00800b44 	movi	r2,45
 80006f0:	e0bffe05 	stb	r2,-8(fp)
	int i = 1;
 80006f4:	00800044 	movi	r2,1
 80006f8:	e0bffc15 	stw	r2,-16(fp)

	while(1){

		int k;
		//Extract hours
		for(k = 0; k < 2; k++){
 80006fc:	e03ffd15 	stw	zero,-12(fp)
 8000700:	00000f06 	br	8000740 <extractInformation+0x60>
			hours[k] = arr[i];
 8000704:	00820074 	movhi	r2,2049
 8000708:	109b1a04 	addi	r2,r2,27752
 800070c:	e0fffc17 	ldw	r3,-16(fp)
 8000710:	10c5883a 	add	r2,r2,r3
 8000714:	10c00003 	ldbu	r3,0(r2)
 8000718:	e13ffd17 	ldw	r4,-12(fp)
 800071c:	d0a6cd04 	addi	r2,gp,-25804
 8000720:	2085883a 	add	r2,r4,r2
 8000724:	10c00005 	stb	r3,0(r2)
			i++;
 8000728:	e0bffc17 	ldw	r2,-16(fp)
 800072c:	10800044 	addi	r2,r2,1
 8000730:	e0bffc15 	stw	r2,-16(fp)

	while(1){

		int k;
		//Extract hours
		for(k = 0; k < 2; k++){
 8000734:	e0bffd17 	ldw	r2,-12(fp)
 8000738:	10800044 	addi	r2,r2,1
 800073c:	e0bffd15 	stw	r2,-12(fp)
 8000740:	e0bffd17 	ldw	r2,-12(fp)
 8000744:	10800090 	cmplti	r2,r2,2
 8000748:	103fee1e 	bne	r2,zero,8000704 <__alt_data_end+0xfc000704>
			hours[k] = arr[i];
			i++;
		}

		//Extract minutes
		for( k = 0; k < 2; k++){
 800074c:	e03ffd15 	stw	zero,-12(fp)
 8000750:	00000f06 	br	8000790 <extractInformation+0xb0>
			minutes[k] = arr[i];
 8000754:	00820074 	movhi	r2,2049
 8000758:	109b1a04 	addi	r2,r2,27752
 800075c:	e0fffc17 	ldw	r3,-16(fp)
 8000760:	10c5883a 	add	r2,r2,r3
 8000764:	10c00003 	ldbu	r3,0(r2)
 8000768:	e13ffd17 	ldw	r4,-12(fp)
 800076c:	d0a6cdc4 	addi	r2,gp,-25801
 8000770:	2085883a 	add	r2,r4,r2
 8000774:	10c00005 	stb	r3,0(r2)
			i++;
 8000778:	e0bffc17 	ldw	r2,-16(fp)
 800077c:	10800044 	addi	r2,r2,1
 8000780:	e0bffc15 	stw	r2,-16(fp)
			hours[k] = arr[i];
			i++;
		}

		//Extract minutes
		for( k = 0; k < 2; k++){
 8000784:	e0bffd17 	ldw	r2,-12(fp)
 8000788:	10800044 	addi	r2,r2,1
 800078c:	e0bffd15 	stw	r2,-12(fp)
 8000790:	e0bffd17 	ldw	r2,-12(fp)
 8000794:	10800090 	cmplti	r2,r2,2
 8000798:	103fee1e 	bne	r2,zero,8000754 <__alt_data_end+0xfc000754>
			minutes[k] = arr[i];
			i++;
			}

		//Extract seconds
		for( k = 0; k < 2; k++){
 800079c:	e03ffd15 	stw	zero,-12(fp)
 80007a0:	00000f06 	br	80007e0 <extractInformation+0x100>
			seconds[k] = arr[i];
 80007a4:	00820074 	movhi	r2,2049
 80007a8:	109b1a04 	addi	r2,r2,27752
 80007ac:	e0fffc17 	ldw	r3,-16(fp)
 80007b0:	10c5883a 	add	r2,r2,r3
 80007b4:	10c00003 	ldbu	r3,0(r2)
 80007b8:	e13ffd17 	ldw	r4,-12(fp)
 80007bc:	d0a6ce84 	addi	r2,gp,-25798
 80007c0:	2085883a 	add	r2,r4,r2
 80007c4:	10c00005 	stb	r3,0(r2)
			i++;
 80007c8:	e0bffc17 	ldw	r2,-16(fp)
 80007cc:	10800044 	addi	r2,r2,1
 80007d0:	e0bffc15 	stw	r2,-16(fp)
			minutes[k] = arr[i];
			i++;
			}

		//Extract seconds
		for( k = 0; k < 2; k++){
 80007d4:	e0bffd17 	ldw	r2,-12(fp)
 80007d8:	10800044 	addi	r2,r2,1
 80007dc:	e0bffd15 	stw	r2,-12(fp)
 80007e0:	e0bffd17 	ldw	r2,-12(fp)
 80007e4:	10800090 	cmplti	r2,r2,2
 80007e8:	103fee1e 	bne	r2,zero,80007a4 <__alt_data_end+0xfc0007a4>
			seconds[k] = arr[i];
			i++;
			}

		//To skip the .sss from the seconds
		i = i+5;
 80007ec:	e0bffc17 	ldw	r2,-16(fp)
 80007f0:	10800144 	addi	r2,r2,5
 80007f4:	e0bffc15 	stw	r2,-16(fp)

		int skip = i + 4;
 80007f8:	e0bffc17 	ldw	r2,-16(fp)
 80007fc:	10800104 	addi	r2,r2,4
 8000800:	e0bfff15 	stw	r2,-4(fp)
		//Extract Latitude
		for( k = 0; k < 9; k++){
 8000804:	e03ffd15 	stw	zero,-12(fp)
 8000808:	00001c06 	br	800087c <extractInformation+0x19c>
			if(i == skip){
 800080c:	e0fffc17 	ldw	r3,-16(fp)
 8000810:	e0bfff17 	ldw	r2,-4(fp)
 8000814:	1880041e 	bne	r3,r2,8000828 <extractInformation+0x148>
				i++;
 8000818:	e0bffc17 	ldw	r2,-16(fp)
 800081c:	10800044 	addi	r2,r2,1
 8000820:	e0bffc15 	stw	r2,-16(fp)
				continue;
 8000824:	00001206 	br	8000870 <extractInformation+0x190>
			}
			latitude[k] = arr[i];
 8000828:	00820074 	movhi	r2,2049
 800082c:	109b1a04 	addi	r2,r2,27752
 8000830:	e0fffc17 	ldw	r3,-16(fp)
 8000834:	10c5883a 	add	r2,r2,r3
 8000838:	10800003 	ldbu	r2,0(r2)
 800083c:	11003fcc 	andi	r4,r2,255
 8000840:	2100201c 	xori	r4,r4,128
 8000844:	213fe004 	addi	r4,r4,-128
 8000848:	00820074 	movhi	r2,2049
 800084c:	109b4004 	addi	r2,r2,27904
 8000850:	e0fffd17 	ldw	r3,-12(fp)
 8000854:	18c7883a 	add	r3,r3,r3
 8000858:	18c7883a 	add	r3,r3,r3
 800085c:	10c5883a 	add	r2,r2,r3
 8000860:	11000015 	stw	r4,0(r2)
			i++;
 8000864:	e0bffc17 	ldw	r2,-16(fp)
 8000868:	10800044 	addi	r2,r2,1
 800086c:	e0bffc15 	stw	r2,-16(fp)
		//To skip the .sss from the seconds
		i = i+5;

		int skip = i + 4;
		//Extract Latitude
		for( k = 0; k < 9; k++){
 8000870:	e0bffd17 	ldw	r2,-12(fp)
 8000874:	10800044 	addi	r2,r2,1
 8000878:	e0bffd15 	stw	r2,-12(fp)
 800087c:	e0bffd17 	ldw	r2,-12(fp)
 8000880:	10800250 	cmplti	r2,r2,9
 8000884:	103fe11e 	bne	r2,zero,800080c <__alt_data_end+0xfc00080c>
			latitude[k] = arr[i];
			i++;
			}

		//To skip the comma
		i++;
 8000888:	e0bffc17 	ldw	r2,-16(fp)
 800088c:	10800044 	addi	r2,r2,1
 8000890:	e0bffc15 	stw	r2,-16(fp)

		//Extract NS Direction
		directionNS[0] = arr[i];
 8000894:	00820074 	movhi	r2,2049
 8000898:	109b1a04 	addi	r2,r2,27752
 800089c:	e0fffc17 	ldw	r3,-16(fp)
 80008a0:	10c5883a 	add	r2,r2,r3
 80008a4:	10800003 	ldbu	r2,0(r2)
 80008a8:	d0a6d205 	stb	r2,-25784(gp)

		//To skip the comma
		i = i + 2;
 80008ac:	e0bffc17 	ldw	r2,-16(fp)
 80008b0:	10800084 	addi	r2,r2,2
 80008b4:	e0bffc15 	stw	r2,-16(fp)

		skip = i+5;
 80008b8:	e0bffc17 	ldw	r2,-16(fp)
 80008bc:	10800144 	addi	r2,r2,5
 80008c0:	e0bfff15 	stw	r2,-4(fp)
		//Extract the longitude
		for( k = 0; k < 10; k++){
 80008c4:	e03ffd15 	stw	zero,-12(fp)
 80008c8:	00001c06 	br	800093c <extractInformation+0x25c>
			if(i == skip){
 80008cc:	e0fffc17 	ldw	r3,-16(fp)
 80008d0:	e0bfff17 	ldw	r2,-4(fp)
 80008d4:	1880041e 	bne	r3,r2,80008e8 <extractInformation+0x208>
				i++;
 80008d8:	e0bffc17 	ldw	r2,-16(fp)
 80008dc:	10800044 	addi	r2,r2,1
 80008e0:	e0bffc15 	stw	r2,-16(fp)
				continue;
 80008e4:	00001206 	br	8000930 <extractInformation+0x250>
				}
			longitude[k] = arr[i];
 80008e8:	00820074 	movhi	r2,2049
 80008ec:	109b1a04 	addi	r2,r2,27752
 80008f0:	e0fffc17 	ldw	r3,-16(fp)
 80008f4:	10c5883a 	add	r2,r2,r3
 80008f8:	10800003 	ldbu	r2,0(r2)
 80008fc:	11003fcc 	andi	r4,r2,255
 8000900:	2100201c 	xori	r4,r4,128
 8000904:	213fe004 	addi	r4,r4,-128
 8000908:	00820074 	movhi	r2,2049
 800090c:	109b3604 	addi	r2,r2,27864
 8000910:	e0fffd17 	ldw	r3,-12(fp)
 8000914:	18c7883a 	add	r3,r3,r3
 8000918:	18c7883a 	add	r3,r3,r3
 800091c:	10c5883a 	add	r2,r2,r3
 8000920:	11000015 	stw	r4,0(r2)
			i++;
 8000924:	e0bffc17 	ldw	r2,-16(fp)
 8000928:	10800044 	addi	r2,r2,1
 800092c:	e0bffc15 	stw	r2,-16(fp)
		//To skip the comma
		i = i + 2;

		skip = i+5;
		//Extract the longitude
		for( k = 0; k < 10; k++){
 8000930:	e0bffd17 	ldw	r2,-12(fp)
 8000934:	10800044 	addi	r2,r2,1
 8000938:	e0bffd15 	stw	r2,-12(fp)
 800093c:	e0bffd17 	ldw	r2,-12(fp)
 8000940:	10800290 	cmplti	r2,r2,10
 8000944:	103fe11e 	bne	r2,zero,80008cc <__alt_data_end+0xfc0008cc>
				}
			longitude[k] = arr[i];
			i++;
			}

		i = i+1;
 8000948:	e0bffc17 	ldw	r2,-16(fp)
 800094c:	10800044 	addi	r2,r2,1
 8000950:	e0bffc15 	stw	r2,-16(fp)

		//Extract EW Direction
		directionEW[0] = arr[i];
 8000954:	00820074 	movhi	r2,2049
 8000958:	109b1a04 	addi	r2,r2,27752
 800095c:	e0fffc17 	ldw	r3,-16(fp)
 8000960:	10c5883a 	add	r2,r2,r3
 8000964:	10800003 	ldbu	r2,0(r2)
 8000968:	d0a6d245 	stb	r2,-25783(gp)

		break;
 800096c:	0001883a 	nop
	}
}
 8000970:	e037883a 	mov	sp,fp
 8000974:	df000017 	ldw	fp,0(sp)
 8000978:	dec00104 	addi	sp,sp,4
 800097c:	f800283a 	ret

08000980 <printGPS>:

void printGPS(){
 8000980:	defffd04 	addi	sp,sp,-12
 8000984:	dfc00215 	stw	ra,8(sp)
 8000988:	df000115 	stw	fp,4(sp)
 800098c:	df000104 	addi	fp,sp,4

	int counter;

	//Printing Time
	printf("\nTime: ");
 8000990:	01020074 	movhi	r4,2049
 8000994:	210bcf04 	addi	r4,r4,12092
 8000998:	8000e8c0 	call	8000e8c <printf>
	for(counter = 0; counter < 2; counter++){
 800099c:	e03fff15 	stw	zero,-4(fp)
 80009a0:	00000c06 	br	80009d4 <printGPS+0x54>
		printf("%c", hours[counter]);
 80009a4:	e0ffff17 	ldw	r3,-4(fp)
 80009a8:	d0a6cd04 	addi	r2,gp,-25804
 80009ac:	1885883a 	add	r2,r3,r2
 80009b0:	10800003 	ldbu	r2,0(r2)
 80009b4:	10803fcc 	andi	r2,r2,255
 80009b8:	1080201c 	xori	r2,r2,128
 80009bc:	10bfe004 	addi	r2,r2,-128
 80009c0:	1009883a 	mov	r4,r2
 80009c4:	8000ed00 	call	8000ed0 <putchar>

	int counter;

	//Printing Time
	printf("\nTime: ");
	for(counter = 0; counter < 2; counter++){
 80009c8:	e0bfff17 	ldw	r2,-4(fp)
 80009cc:	10800044 	addi	r2,r2,1
 80009d0:	e0bfff15 	stw	r2,-4(fp)
 80009d4:	e0bfff17 	ldw	r2,-4(fp)
 80009d8:	10800090 	cmplti	r2,r2,2
 80009dc:	103ff11e 	bne	r2,zero,80009a4 <__alt_data_end+0xfc0009a4>
		printf("%c", hours[counter]);
	}

	printf(":");
 80009e0:	01000e84 	movi	r4,58
 80009e4:	8000ed00 	call	8000ed0 <putchar>

	for(counter = 0; counter < 2; counter++){
 80009e8:	e03fff15 	stw	zero,-4(fp)
 80009ec:	00000c06 	br	8000a20 <printGPS+0xa0>
		printf("%c", minutes[counter]);
 80009f0:	e0ffff17 	ldw	r3,-4(fp)
 80009f4:	d0a6cdc4 	addi	r2,gp,-25801
 80009f8:	1885883a 	add	r2,r3,r2
 80009fc:	10800003 	ldbu	r2,0(r2)
 8000a00:	10803fcc 	andi	r2,r2,255
 8000a04:	1080201c 	xori	r2,r2,128
 8000a08:	10bfe004 	addi	r2,r2,-128
 8000a0c:	1009883a 	mov	r4,r2
 8000a10:	8000ed00 	call	8000ed0 <putchar>
		printf("%c", hours[counter]);
	}

	printf(":");

	for(counter = 0; counter < 2; counter++){
 8000a14:	e0bfff17 	ldw	r2,-4(fp)
 8000a18:	10800044 	addi	r2,r2,1
 8000a1c:	e0bfff15 	stw	r2,-4(fp)
 8000a20:	e0bfff17 	ldw	r2,-4(fp)
 8000a24:	10800090 	cmplti	r2,r2,2
 8000a28:	103ff11e 	bne	r2,zero,80009f0 <__alt_data_end+0xfc0009f0>
		printf("%c", minutes[counter]);
	}

	printf(":");
 8000a2c:	01000e84 	movi	r4,58
 8000a30:	8000ed00 	call	8000ed0 <putchar>

	for(counter = 0; counter < 2; counter++){
 8000a34:	e03fff15 	stw	zero,-4(fp)
 8000a38:	00000c06 	br	8000a6c <printGPS+0xec>
		printf("%c", seconds[counter]);
 8000a3c:	e0ffff17 	ldw	r3,-4(fp)
 8000a40:	d0a6ce84 	addi	r2,gp,-25798
 8000a44:	1885883a 	add	r2,r3,r2
 8000a48:	10800003 	ldbu	r2,0(r2)
 8000a4c:	10803fcc 	andi	r2,r2,255
 8000a50:	1080201c 	xori	r2,r2,128
 8000a54:	10bfe004 	addi	r2,r2,-128
 8000a58:	1009883a 	mov	r4,r2
 8000a5c:	8000ed00 	call	8000ed0 <putchar>
		printf("%c", minutes[counter]);
	}

	printf(":");

	for(counter = 0; counter < 2; counter++){
 8000a60:	e0bfff17 	ldw	r2,-4(fp)
 8000a64:	10800044 	addi	r2,r2,1
 8000a68:	e0bfff15 	stw	r2,-4(fp)
 8000a6c:	e0bfff17 	ldw	r2,-4(fp)
 8000a70:	10800090 	cmplti	r2,r2,2
 8000a74:	103ff11e 	bne	r2,zero,8000a3c <__alt_data_end+0xfc000a3c>
		printf("%c", seconds[counter]);
	}

	//Latitude
	printf("\nLatitude: ");
 8000a78:	01020074 	movhi	r4,2049
 8000a7c:	210bd104 	addi	r4,r4,12100
 8000a80:	8000e8c0 	call	8000e8c <printf>
	for(counter = 0; counter < 9; counter++){
 8000a84:	e03fff15 	stw	zero,-4(fp)
 8000a88:	00000c06 	br	8000abc <printGPS+0x13c>
	printf("%c", latitude[counter]);
 8000a8c:	00820074 	movhi	r2,2049
 8000a90:	109b4004 	addi	r2,r2,27904
 8000a94:	e0ffff17 	ldw	r3,-4(fp)
 8000a98:	18c7883a 	add	r3,r3,r3
 8000a9c:	18c7883a 	add	r3,r3,r3
 8000aa0:	10c5883a 	add	r2,r2,r3
 8000aa4:	10800017 	ldw	r2,0(r2)
 8000aa8:	1009883a 	mov	r4,r2
 8000aac:	8000ed00 	call	8000ed0 <putchar>
		printf("%c", seconds[counter]);
	}

	//Latitude
	printf("\nLatitude: ");
	for(counter = 0; counter < 9; counter++){
 8000ab0:	e0bfff17 	ldw	r2,-4(fp)
 8000ab4:	10800044 	addi	r2,r2,1
 8000ab8:	e0bfff15 	stw	r2,-4(fp)
 8000abc:	e0bfff17 	ldw	r2,-4(fp)
 8000ac0:	10800250 	cmplti	r2,r2,9
 8000ac4:	103ff11e 	bne	r2,zero,8000a8c <__alt_data_end+0xfc000a8c>
	printf("%c", latitude[counter]);
	}

	//Longitude
	printf("\nLongitude: ");
 8000ac8:	01020074 	movhi	r4,2049
 8000acc:	210bd404 	addi	r4,r4,12112
 8000ad0:	8000e8c0 	call	8000e8c <printf>
	for(counter = 0; counter < 10; counter++){
 8000ad4:	e03fff15 	stw	zero,-4(fp)
 8000ad8:	00000c06 	br	8000b0c <printGPS+0x18c>
	printf("%c", longitude[counter]);
 8000adc:	00820074 	movhi	r2,2049
 8000ae0:	109b3604 	addi	r2,r2,27864
 8000ae4:	e0ffff17 	ldw	r3,-4(fp)
 8000ae8:	18c7883a 	add	r3,r3,r3
 8000aec:	18c7883a 	add	r3,r3,r3
 8000af0:	10c5883a 	add	r2,r2,r3
 8000af4:	10800017 	ldw	r2,0(r2)
 8000af8:	1009883a 	mov	r4,r2
 8000afc:	8000ed00 	call	8000ed0 <putchar>
	printf("%c", latitude[counter]);
	}

	//Longitude
	printf("\nLongitude: ");
	for(counter = 0; counter < 10; counter++){
 8000b00:	e0bfff17 	ldw	r2,-4(fp)
 8000b04:	10800044 	addi	r2,r2,1
 8000b08:	e0bfff15 	stw	r2,-4(fp)
 8000b0c:	e0bfff17 	ldw	r2,-4(fp)
 8000b10:	10800290 	cmplti	r2,r2,10
 8000b14:	103ff11e 	bne	r2,zero,8000adc <__alt_data_end+0xfc000adc>
	printf("%c", longitude[counter]);
	}

	//DirectionNS
	printf("\nDirection(NS): ");
 8000b18:	01020074 	movhi	r4,2049
 8000b1c:	210bd804 	addi	r4,r4,12128
 8000b20:	8000e8c0 	call	8000e8c <printf>
	for(counter = 0; counter < 1; counter++){
 8000b24:	e03fff15 	stw	zero,-4(fp)
 8000b28:	00000c06 	br	8000b5c <printGPS+0x1dc>
	printf("%c", directionNS[counter]);
 8000b2c:	e0ffff17 	ldw	r3,-4(fp)
 8000b30:	d0a6d204 	addi	r2,gp,-25784
 8000b34:	1885883a 	add	r2,r3,r2
 8000b38:	10800003 	ldbu	r2,0(r2)
 8000b3c:	10803fcc 	andi	r2,r2,255
 8000b40:	1080201c 	xori	r2,r2,128
 8000b44:	10bfe004 	addi	r2,r2,-128
 8000b48:	1009883a 	mov	r4,r2
 8000b4c:	8000ed00 	call	8000ed0 <putchar>
	printf("%c", longitude[counter]);
	}

	//DirectionNS
	printf("\nDirection(NS): ");
	for(counter = 0; counter < 1; counter++){
 8000b50:	e0bfff17 	ldw	r2,-4(fp)
 8000b54:	10800044 	addi	r2,r2,1
 8000b58:	e0bfff15 	stw	r2,-4(fp)
 8000b5c:	e0bfff17 	ldw	r2,-4(fp)
 8000b60:	00bff20e 	bge	zero,r2,8000b2c <__alt_data_end+0xfc000b2c>
	printf("%c", directionNS[counter]);
	}

	//DirectionEW
	printf("\nDirection(EW): ");
 8000b64:	01020074 	movhi	r4,2049
 8000b68:	210bdd04 	addi	r4,r4,12148
 8000b6c:	8000e8c0 	call	8000e8c <printf>
	for(counter = 0; counter < 1; counter++){
 8000b70:	e03fff15 	stw	zero,-4(fp)
 8000b74:	00000c06 	br	8000ba8 <printGPS+0x228>
	printf("%c", directionEW[counter]);
 8000b78:	e0ffff17 	ldw	r3,-4(fp)
 8000b7c:	d0a6d244 	addi	r2,gp,-25783
 8000b80:	1885883a 	add	r2,r3,r2
 8000b84:	10800003 	ldbu	r2,0(r2)
 8000b88:	10803fcc 	andi	r2,r2,255
 8000b8c:	1080201c 	xori	r2,r2,128
 8000b90:	10bfe004 	addi	r2,r2,-128
 8000b94:	1009883a 	mov	r4,r2
 8000b98:	8000ed00 	call	8000ed0 <putchar>
	printf("%c", directionNS[counter]);
	}

	//DirectionEW
	printf("\nDirection(EW): ");
	for(counter = 0; counter < 1; counter++){
 8000b9c:	e0bfff17 	ldw	r2,-4(fp)
 8000ba0:	10800044 	addi	r2,r2,1
 8000ba4:	e0bfff15 	stw	r2,-4(fp)
 8000ba8:	e0bfff17 	ldw	r2,-4(fp)
 8000bac:	00bff20e 	bge	zero,r2,8000b78 <__alt_data_end+0xfc000b78>
	printf("%c", directionEW[counter]);
	}
}
 8000bb0:	e037883a 	mov	sp,fp
 8000bb4:	dfc00117 	ldw	ra,4(sp)
 8000bb8:	df000017 	ldw	fp,0(sp)
 8000bbc:	dec00204 	addi	sp,sp,8
 8000bc0:	f800283a 	ret

08000bc4 <printOnHex>:


void printOnHex(){
 8000bc4:	deffff04 	addi	sp,sp,-4
 8000bc8:	df000015 	stw	fp,0(sp)
 8000bcc:	d839883a 	mov	fp,sp
	*hex0_1 = 00000001;
 8000bd0:	00880c04 	movi	r2,8240
 8000bd4:	00c00044 	movi	r3,1
 8000bd8:	10c00005 	stb	r3,0(r2)
	*hex2_3 = 00000011;
 8000bdc:	00881004 	movi	r2,8256
 8000be0:	00c00244 	movi	r3,9
 8000be4:	10c00005 	stb	r3,0(r2)
	*hex4_5 = 00000100;
 8000be8:	00881404 	movi	r2,8272
 8000bec:	00c01004 	movi	r3,64
 8000bf0:	10c00005 	stb	r3,0(r2)
}
 8000bf4:	e037883a 	mov	sp,fp
 8000bf8:	df000017 	ldw	fp,0(sp)
 8000bfc:	dec00104 	addi	sp,sp,4
 8000c00:	f800283a 	ret

08000c04 <main>:

int main(){
 8000c04:	defffc04 	addi	sp,sp,-16
 8000c08:	dfc00315 	stw	ra,12(sp)
 8000c0c:	df000215 	stw	fp,8(sp)
 8000c10:	df000204 	addi	fp,sp,8

Init_GPS();
 8000c14:	80003180 	call	8000318 <Init_GPS>
intialiseArray();
 8000c18:	80005900 	call	8000590 <intialiseArray>
getInfo();
 8000c1c:	80005e40 	call	80005e4 <getInfo>
extractInformation();
 8000c20:	80006e00 	call	80006e0 <extractInformation>


for(i = 0; i < 100; i++)
 8000c24:	d026d015 	stw	zero,-25792(gp)
 8000c28:	00000d06 	br	8000c60 <main+0x5c>
{
	printf("%c",arr[i]);
 8000c2c:	d0e6d017 	ldw	r3,-25792(gp)
 8000c30:	00820074 	movhi	r2,2049
 8000c34:	109b1a04 	addi	r2,r2,27752
 8000c38:	10c5883a 	add	r2,r2,r3
 8000c3c:	10800003 	ldbu	r2,0(r2)
 8000c40:	10803fcc 	andi	r2,r2,255
 8000c44:	1080201c 	xori	r2,r2,128
 8000c48:	10bfe004 	addi	r2,r2,-128
 8000c4c:	1009883a 	mov	r4,r2
 8000c50:	8000ed00 	call	8000ed0 <putchar>
intialiseArray();
getInfo();
extractInformation();


for(i = 0; i < 100; i++)
 8000c54:	d0a6d017 	ldw	r2,-25792(gp)
 8000c58:	10800044 	addi	r2,r2,1
 8000c5c:	d0a6d015 	stw	r2,-25792(gp)
 8000c60:	d0a6d017 	ldw	r2,-25792(gp)
 8000c64:	10801910 	cmplti	r2,r2,100
 8000c68:	103ff01e 	bne	r2,zero,8000c2c <__alt_data_end+0xfc000c2c>
{
	printf("%c",arr[i]);
}

int k, lat = 0;
 8000c6c:	e03fff15 	stw	zero,-4(fp)
for (k = 0; k < 3; k++)
 8000c70:	e03ffe15 	stw	zero,-8(fp)
 8000c74:	00000e06 	br	8000cb0 <main+0xac>
    lat = 10 * lat + latitude[k];
 8000c78:	e0bfff17 	ldw	r2,-4(fp)
 8000c7c:	110002a4 	muli	r4,r2,10
 8000c80:	00820074 	movhi	r2,2049
 8000c84:	109b4004 	addi	r2,r2,27904
 8000c88:	e0fffe17 	ldw	r3,-8(fp)
 8000c8c:	18c7883a 	add	r3,r3,r3
 8000c90:	18c7883a 	add	r3,r3,r3
 8000c94:	10c5883a 	add	r2,r2,r3
 8000c98:	10800017 	ldw	r2,0(r2)
 8000c9c:	2085883a 	add	r2,r4,r2
 8000ca0:	e0bfff15 	stw	r2,-4(fp)
{
	printf("%c",arr[i]);
}

int k, lat = 0;
for (k = 0; k < 3; k++)
 8000ca4:	e0bffe17 	ldw	r2,-8(fp)
 8000ca8:	10800044 	addi	r2,r2,1
 8000cac:	e0bffe15 	stw	r2,-8(fp)
 8000cb0:	e0bffe17 	ldw	r2,-8(fp)
 8000cb4:	108000d0 	cmplti	r2,r2,3
 8000cb8:	103fef1e 	bne	r2,zero,8000c78 <__alt_data_end+0xfc000c78>
    lat = 10 * lat + latitude[k];

//latitude2 = FloatToLatitudeConversion(latitude);
printf("\n%d", lat);
 8000cbc:	01020074 	movhi	r4,2049
 8000cc0:	210be204 	addi	r4,r4,12168
 8000cc4:	e17fff17 	ldw	r5,-4(fp)
 8000cc8:	8000e8c0 	call	8000e8c <printf>

printGPS();
 8000ccc:	80009800 	call	8000980 <printGPS>
printOnHex();
 8000cd0:	8000bc40 	call	8000bc4 <printOnHex>

return (0);
 8000cd4:	0005883a 	mov	r2,zero

}
 8000cd8:	e037883a 	mov	sp,fp
 8000cdc:	dfc00117 	ldw	ra,4(sp)
 8000ce0:	df000017 	ldw	fp,0(sp)
 8000ce4:	dec00204 	addi	sp,sp,8
 8000ce8:	f800283a 	ret

08000cec <__extendsfdf2>:
 8000cec:	200ad5fa 	srli	r5,r4,23
 8000cf0:	defffd04 	addi	sp,sp,-12
 8000cf4:	dc400115 	stw	r17,4(sp)
 8000cf8:	29403fcc 	andi	r5,r5,255
 8000cfc:	29800044 	addi	r6,r5,1
 8000d00:	04402034 	movhi	r17,128
 8000d04:	dc000015 	stw	r16,0(sp)
 8000d08:	8c7fffc4 	addi	r17,r17,-1
 8000d0c:	dfc00215 	stw	ra,8(sp)
 8000d10:	31803fcc 	andi	r6,r6,255
 8000d14:	00800044 	movi	r2,1
 8000d18:	8922703a 	and	r17,r17,r4
 8000d1c:	2020d7fa 	srli	r16,r4,31
 8000d20:	1180110e 	bge	r2,r6,8000d68 <__extendsfdf2+0x7c>
 8000d24:	880ed0fa 	srli	r7,r17,3
 8000d28:	8822977a 	slli	r17,r17,29
 8000d2c:	2940e004 	addi	r5,r5,896
 8000d30:	2941ffcc 	andi	r5,r5,2047
 8000d34:	280c953a 	slli	r6,r5,20
 8000d38:	01400434 	movhi	r5,16
 8000d3c:	800697fa 	slli	r3,r16,31
 8000d40:	297fffc4 	addi	r5,r5,-1
 8000d44:	394a703a 	and	r5,r7,r5
 8000d48:	298ab03a 	or	r5,r5,r6
 8000d4c:	8805883a 	mov	r2,r17
 8000d50:	28c6b03a 	or	r3,r5,r3
 8000d54:	dfc00217 	ldw	ra,8(sp)
 8000d58:	dc400117 	ldw	r17,4(sp)
 8000d5c:	dc000017 	ldw	r16,0(sp)
 8000d60:	dec00304 	addi	sp,sp,12
 8000d64:	f800283a 	ret
 8000d68:	2800111e 	bne	r5,zero,8000db0 <__extendsfdf2+0xc4>
 8000d6c:	88001c26 	beq	r17,zero,8000de0 <__extendsfdf2+0xf4>
 8000d70:	8809883a 	mov	r4,r17
 8000d74:	8000dfc0 	call	8000dfc <__clzsi2>
 8000d78:	00c00284 	movi	r3,10
 8000d7c:	18801b16 	blt	r3,r2,8000dec <__extendsfdf2+0x100>
 8000d80:	01c002c4 	movi	r7,11
 8000d84:	388fc83a 	sub	r7,r7,r2
 8000d88:	10c00544 	addi	r3,r2,21
 8000d8c:	89ced83a 	srl	r7,r17,r7
 8000d90:	88e2983a 	sll	r17,r17,r3
 8000d94:	0180e244 	movi	r6,905
 8000d98:	308bc83a 	sub	r5,r6,r2
 8000d9c:	01800434 	movhi	r6,16
 8000da0:	31bfffc4 	addi	r6,r6,-1
 8000da4:	398e703a 	and	r7,r7,r6
 8000da8:	2941ffcc 	andi	r5,r5,2047
 8000dac:	003fe006 	br	8000d30 <__alt_data_end+0xfc000d30>
 8000db0:	88000826 	beq	r17,zero,8000dd4 <__extendsfdf2+0xe8>
 8000db4:	880ed0fa 	srli	r7,r17,3
 8000db8:	00800434 	movhi	r2,16
 8000dbc:	10bfffc4 	addi	r2,r2,-1
 8000dc0:	39c00234 	orhi	r7,r7,8
 8000dc4:	8822977a 	slli	r17,r17,29
 8000dc8:	388e703a 	and	r7,r7,r2
 8000dcc:	0141ffc4 	movi	r5,2047
 8000dd0:	003fd706 	br	8000d30 <__alt_data_end+0xfc000d30>
 8000dd4:	0141ffc4 	movi	r5,2047
 8000dd8:	000f883a 	mov	r7,zero
 8000ddc:	003fd406 	br	8000d30 <__alt_data_end+0xfc000d30>
 8000de0:	000b883a 	mov	r5,zero
 8000de4:	000f883a 	mov	r7,zero
 8000de8:	003fd106 	br	8000d30 <__alt_data_end+0xfc000d30>
 8000dec:	11fffd44 	addi	r7,r2,-11
 8000df0:	89ce983a 	sll	r7,r17,r7
 8000df4:	0023883a 	mov	r17,zero
 8000df8:	003fe606 	br	8000d94 <__alt_data_end+0xfc000d94>

08000dfc <__clzsi2>:
 8000dfc:	00bfffd4 	movui	r2,65535
 8000e00:	11000b36 	bltu	r2,r4,8000e30 <__clzsi2+0x34>
 8000e04:	00803fc4 	movi	r2,255
 8000e08:	1100122e 	bgeu	r2,r4,8000e54 <__clzsi2+0x58>
 8000e0c:	00c00204 	movi	r3,8
 8000e10:	01400604 	movi	r5,24
 8000e14:	20c8d83a 	srl	r4,r4,r3
 8000e18:	00820074 	movhi	r2,2049
 8000e1c:	108be304 	addi	r2,r2,12172
 8000e20:	1109883a 	add	r4,r2,r4
 8000e24:	20800003 	ldbu	r2,0(r4)
 8000e28:	2885c83a 	sub	r2,r5,r2
 8000e2c:	f800283a 	ret
 8000e30:	00804034 	movhi	r2,256
 8000e34:	10bfffc4 	addi	r2,r2,-1
 8000e38:	11000336 	bltu	r2,r4,8000e48 <__clzsi2+0x4c>
 8000e3c:	00c00404 	movi	r3,16
 8000e40:	180b883a 	mov	r5,r3
 8000e44:	003ff306 	br	8000e14 <__alt_data_end+0xfc000e14>
 8000e48:	00c00604 	movi	r3,24
 8000e4c:	01400204 	movi	r5,8
 8000e50:	003ff006 	br	8000e14 <__alt_data_end+0xfc000e14>
 8000e54:	0007883a 	mov	r3,zero
 8000e58:	01400804 	movi	r5,32
 8000e5c:	003fed06 	br	8000e14 <__alt_data_end+0xfc000e14>

08000e60 <_printf_r>:
 8000e60:	defffd04 	addi	sp,sp,-12
 8000e64:	dfc00015 	stw	ra,0(sp)
 8000e68:	d9800115 	stw	r6,4(sp)
 8000e6c:	d9c00215 	stw	r7,8(sp)
 8000e70:	280d883a 	mov	r6,r5
 8000e74:	21400217 	ldw	r5,8(r4)
 8000e78:	d9c00104 	addi	r7,sp,4
 8000e7c:	80031e80 	call	80031e8 <___vfprintf_internal_r>
 8000e80:	dfc00017 	ldw	ra,0(sp)
 8000e84:	dec00304 	addi	sp,sp,12
 8000e88:	f800283a 	ret

08000e8c <printf>:
 8000e8c:	defffc04 	addi	sp,sp,-16
 8000e90:	dfc00015 	stw	ra,0(sp)
 8000e94:	d9400115 	stw	r5,4(sp)
 8000e98:	d9800215 	stw	r6,8(sp)
 8000e9c:	d9c00315 	stw	r7,12(sp)
 8000ea0:	00820074 	movhi	r2,2049
 8000ea4:	1093ff04 	addi	r2,r2,20476
 8000ea8:	10800017 	ldw	r2,0(r2)
 8000eac:	200b883a 	mov	r5,r4
 8000eb0:	d9800104 	addi	r6,sp,4
 8000eb4:	11000217 	ldw	r4,8(r2)
 8000eb8:	80051e40 	call	80051e4 <__vfprintf_internal>
 8000ebc:	dfc00017 	ldw	ra,0(sp)
 8000ec0:	dec00404 	addi	sp,sp,16
 8000ec4:	f800283a 	ret

08000ec8 <_putchar_r>:
 8000ec8:	21800217 	ldw	r6,8(r4)
 8000ecc:	80094ec1 	jmpi	80094ec <_putc_r>

08000ed0 <putchar>:
 8000ed0:	00820074 	movhi	r2,2049
 8000ed4:	1093ff04 	addi	r2,r2,20476
 8000ed8:	200b883a 	mov	r5,r4
 8000edc:	11000017 	ldw	r4,0(r2)
 8000ee0:	21800217 	ldw	r6,8(r4)
 8000ee4:	80094ec1 	jmpi	80094ec <_putc_r>

08000ee8 <_sprintf_r>:
 8000ee8:	deffe404 	addi	sp,sp,-112
 8000eec:	2807883a 	mov	r3,r5
 8000ef0:	dfc01a15 	stw	ra,104(sp)
 8000ef4:	d9c01b15 	stw	r7,108(sp)
 8000ef8:	00a00034 	movhi	r2,32768
 8000efc:	10bfffc4 	addi	r2,r2,-1
 8000f00:	02008204 	movi	r8,520
 8000f04:	d8800215 	stw	r2,8(sp)
 8000f08:	d8800515 	stw	r2,20(sp)
 8000f0c:	d80b883a 	mov	r5,sp
 8000f10:	d9c01b04 	addi	r7,sp,108
 8000f14:	00bfffc4 	movi	r2,-1
 8000f18:	d8c00015 	stw	r3,0(sp)
 8000f1c:	d8c00415 	stw	r3,16(sp)
 8000f20:	da00030d 	sth	r8,12(sp)
 8000f24:	d880038d 	sth	r2,14(sp)
 8000f28:	80012580 	call	8001258 <___svfprintf_internal_r>
 8000f2c:	d8c00017 	ldw	r3,0(sp)
 8000f30:	18000005 	stb	zero,0(r3)
 8000f34:	dfc01a17 	ldw	ra,104(sp)
 8000f38:	dec01c04 	addi	sp,sp,112
 8000f3c:	f800283a 	ret

08000f40 <sprintf>:
 8000f40:	deffe304 	addi	sp,sp,-116
 8000f44:	2007883a 	mov	r3,r4
 8000f48:	dfc01a15 	stw	ra,104(sp)
 8000f4c:	d9801b15 	stw	r6,108(sp)
 8000f50:	d9c01c15 	stw	r7,112(sp)
 8000f54:	01020074 	movhi	r4,2049
 8000f58:	2113ff04 	addi	r4,r4,20476
 8000f5c:	21000017 	ldw	r4,0(r4)
 8000f60:	00a00034 	movhi	r2,32768
 8000f64:	10bfffc4 	addi	r2,r2,-1
 8000f68:	280d883a 	mov	r6,r5
 8000f6c:	02008204 	movi	r8,520
 8000f70:	d8800215 	stw	r2,8(sp)
 8000f74:	d8800515 	stw	r2,20(sp)
 8000f78:	d80b883a 	mov	r5,sp
 8000f7c:	d9c01b04 	addi	r7,sp,108
 8000f80:	00bfffc4 	movi	r2,-1
 8000f84:	d8c00015 	stw	r3,0(sp)
 8000f88:	d8c00415 	stw	r3,16(sp)
 8000f8c:	da00030d 	sth	r8,12(sp)
 8000f90:	d880038d 	sth	r2,14(sp)
 8000f94:	80012580 	call	8001258 <___svfprintf_internal_r>
 8000f98:	d8c00017 	ldw	r3,0(sp)
 8000f9c:	18000005 	stb	zero,0(r3)
 8000fa0:	dfc01a17 	ldw	ra,104(sp)
 8000fa4:	dec01d04 	addi	sp,sp,116
 8000fa8:	f800283a 	ret

08000fac <_strtoul_r>:
 8000fac:	00820074 	movhi	r2,2049
 8000fb0:	defff604 	addi	sp,sp,-40
 8000fb4:	1093fd04 	addi	r2,r2,20468
 8000fb8:	dc800315 	stw	r18,12(sp)
 8000fbc:	14800017 	ldw	r18,0(r2)
 8000fc0:	dd400615 	stw	r21,24(sp)
 8000fc4:	dd000515 	stw	r20,20(sp)
 8000fc8:	dcc00415 	stw	r19,16(sp)
 8000fcc:	dfc00915 	stw	ra,36(sp)
 8000fd0:	ddc00815 	stw	r23,32(sp)
 8000fd4:	dd800715 	stw	r22,28(sp)
 8000fd8:	dc400215 	stw	r17,8(sp)
 8000fdc:	dc000115 	stw	r16,4(sp)
 8000fe0:	2827883a 	mov	r19,r5
 8000fe4:	2029883a 	mov	r20,r4
 8000fe8:	382b883a 	mov	r21,r7
 8000fec:	2813883a 	mov	r9,r5
 8000ff0:	4a000007 	ldb	r8,0(r9)
 8000ff4:	4807883a 	mov	r3,r9
 8000ff8:	4a400044 	addi	r9,r9,1
 8000ffc:	9205883a 	add	r2,r18,r8
 8001000:	10800043 	ldbu	r2,1(r2)
 8001004:	1080020c 	andi	r2,r2,8
 8001008:	103ff91e 	bne	r2,zero,8000ff0 <__alt_data_end+0xfc000ff0>
 800100c:	00800b44 	movi	r2,45
 8001010:	4023883a 	mov	r17,r8
 8001014:	4821883a 	mov	r16,r9
 8001018:	40805426 	beq	r8,r2,800116c <_strtoul_r+0x1c0>
 800101c:	00800ac4 	movi	r2,43
 8001020:	40805626 	beq	r8,r2,800117c <_strtoul_r+0x1d0>
 8001024:	002f883a 	mov	r23,zero
 8001028:	a8000e26 	beq	r21,zero,8001064 <_strtoul_r+0xb8>
 800102c:	00800404 	movi	r2,16
 8001030:	a8805626 	beq	r21,r2,800118c <_strtoul_r+0x1e0>
 8001034:	013fffc4 	movi	r4,-1
 8001038:	a80b883a 	mov	r5,r21
 800103c:	d9800015 	stw	r6,0(sp)
 8001040:	800e19c0 	call	800e19c <__udivsi3>
 8001044:	013fffc4 	movi	r4,-1
 8001048:	a80b883a 	mov	r5,r21
 800104c:	102d883a 	mov	r22,r2
 8001050:	800e1a40 	call	800e1a4 <__umodsi3>
 8001054:	d9800017 	ldw	r6,0(sp)
 8001058:	a819883a 	mov	r12,r21
 800105c:	b00b883a 	mov	r5,r22
 8001060:	00000706 	br	8001080 <_strtoul_r+0xd4>
 8001064:	00800c04 	movi	r2,48
 8001068:	88804f26 	beq	r17,r2,80011a8 <_strtoul_r+0x1fc>
 800106c:	05400284 	movi	r21,10
 8001070:	014666b4 	movhi	r5,6554
 8001074:	00800144 	movi	r2,5
 8001078:	29666644 	addi	r5,r5,-26215
 800107c:	a819883a 	mov	r12,r21
 8001080:	9451883a 	add	r8,r18,r17
 8001084:	42000043 	ldbu	r8,1(r8)
 8001088:	8007883a 	mov	r3,r16
 800108c:	0009883a 	mov	r4,zero
 8001090:	4240010c 	andi	r9,r8,4
 8001094:	0015883a 	mov	r10,zero
 8001098:	02c00044 	movi	r11,1
 800109c:	01ffffc4 	movi	r7,-1
 80010a0:	48000e26 	beq	r9,zero,80010dc <_strtoul_r+0x130>
 80010a4:	8a3ff404 	addi	r8,r17,-48
 80010a8:	4540120e 	bge	r8,r21,80010f4 <_strtoul_r+0x148>
 80010ac:	21c00526 	beq	r4,r7,80010c4 <_strtoul_r+0x118>
 80010b0:	2a802436 	bltu	r5,r10,8001144 <_strtoul_r+0x198>
 80010b4:	51402226 	beq	r10,r5,8001140 <_strtoul_r+0x194>
 80010b8:	5315383a 	mul	r10,r10,r12
 80010bc:	01000044 	movi	r4,1
 80010c0:	4295883a 	add	r10,r8,r10
 80010c4:	1c400007 	ldb	r17,0(r3)
 80010c8:	18c00044 	addi	r3,r3,1
 80010cc:	9451883a 	add	r8,r18,r17
 80010d0:	42000043 	ldbu	r8,1(r8)
 80010d4:	4240010c 	andi	r9,r8,4
 80010d8:	483ff21e 	bne	r9,zero,80010a4 <__alt_data_end+0xfc0010a4>
 80010dc:	420000cc 	andi	r8,r8,3
 80010e0:	40000426 	beq	r8,zero,80010f4 <_strtoul_r+0x148>
 80010e4:	42c01926 	beq	r8,r11,800114c <_strtoul_r+0x1a0>
 80010e8:	024015c4 	movi	r9,87
 80010ec:	8a51c83a 	sub	r8,r17,r9
 80010f0:	457fee16 	blt	r8,r21,80010ac <__alt_data_end+0xfc0010ac>
 80010f4:	20001916 	blt	r4,zero,800115c <_strtoul_r+0x1b0>
 80010f8:	05c5c83a 	sub	r2,zero,r23
 80010fc:	5084f03a 	xor	r2,r10,r2
 8001100:	15c5883a 	add	r2,r2,r23
 8001104:	30000326 	beq	r6,zero,8001114 <_strtoul_r+0x168>
 8001108:	20001226 	beq	r4,zero,8001154 <_strtoul_r+0x1a8>
 800110c:	197fffc4 	addi	r5,r3,-1
 8001110:	31400015 	stw	r5,0(r6)
 8001114:	dfc00917 	ldw	ra,36(sp)
 8001118:	ddc00817 	ldw	r23,32(sp)
 800111c:	dd800717 	ldw	r22,28(sp)
 8001120:	dd400617 	ldw	r21,24(sp)
 8001124:	dd000517 	ldw	r20,20(sp)
 8001128:	dcc00417 	ldw	r19,16(sp)
 800112c:	dc800317 	ldw	r18,12(sp)
 8001130:	dc400217 	ldw	r17,8(sp)
 8001134:	dc000117 	ldw	r16,4(sp)
 8001138:	dec00a04 	addi	sp,sp,40
 800113c:	f800283a 	ret
 8001140:	123fdd0e 	bge	r2,r8,80010b8 <__alt_data_end+0xfc0010b8>
 8001144:	013fffc4 	movi	r4,-1
 8001148:	003fde06 	br	80010c4 <__alt_data_end+0xfc0010c4>
 800114c:	02400dc4 	movi	r9,55
 8001150:	003fe606 	br	80010ec <__alt_data_end+0xfc0010ec>
 8001154:	980b883a 	mov	r5,r19
 8001158:	003fed06 	br	8001110 <__alt_data_end+0xfc001110>
 800115c:	00800884 	movi	r2,34
 8001160:	a0800015 	stw	r2,0(r20)
 8001164:	00bfffc4 	movi	r2,-1
 8001168:	003fe606 	br	8001104 <__alt_data_end+0xfc001104>
 800116c:	1c000084 	addi	r16,r3,2
 8001170:	1c400047 	ldb	r17,1(r3)
 8001174:	05c00044 	movi	r23,1
 8001178:	003fab06 	br	8001028 <__alt_data_end+0xfc001028>
 800117c:	1c000084 	addi	r16,r3,2
 8001180:	1c400047 	ldb	r17,1(r3)
 8001184:	002f883a 	mov	r23,zero
 8001188:	003fa706 	br	8001028 <__alt_data_end+0xfc001028>
 800118c:	00800c04 	movi	r2,48
 8001190:	88801b26 	beq	r17,r2,8001200 <_strtoul_r+0x254>
 8001194:	01440034 	movhi	r5,4096
 8001198:	297fffc4 	addi	r5,r5,-1
 800119c:	008003c4 	movi	r2,15
 80011a0:	a819883a 	mov	r12,r21
 80011a4:	003fb606 	br	8001080 <__alt_data_end+0xfc001080>
 80011a8:	80c00003 	ldbu	r3,0(r16)
 80011ac:	00bff7c4 	movi	r2,-33
 80011b0:	1884703a 	and	r2,r3,r2
 80011b4:	10803fcc 	andi	r2,r2,255
 80011b8:	1080201c 	xori	r2,r2,128
 80011bc:	10bfe004 	addi	r2,r2,-128
 80011c0:	00c01604 	movi	r3,88
 80011c4:	10c00626 	beq	r2,r3,80011e0 <_strtoul_r+0x234>
 80011c8:	05400204 	movi	r21,8
 80011cc:	01480034 	movhi	r5,8192
 80011d0:	008001c4 	movi	r2,7
 80011d4:	297fffc4 	addi	r5,r5,-1
 80011d8:	a819883a 	mov	r12,r21
 80011dc:	003fa806 	br	8001080 <__alt_data_end+0xfc001080>
 80011e0:	03000404 	movi	r12,16
 80011e4:	05840034 	movhi	r22,4096
 80011e8:	84400047 	ldb	r17,1(r16)
 80011ec:	008003c4 	movi	r2,15
 80011f0:	84000084 	addi	r16,r16,2
 80011f4:	b5bfffc4 	addi	r22,r22,-1
 80011f8:	602b883a 	mov	r21,r12
 80011fc:	003f9706 	br	800105c <__alt_data_end+0xfc00105c>
 8001200:	80c00003 	ldbu	r3,0(r16)
 8001204:	00bff7c4 	movi	r2,-33
 8001208:	1884703a 	and	r2,r3,r2
 800120c:	10803fcc 	andi	r2,r2,255
 8001210:	1080201c 	xori	r2,r2,128
 8001214:	10bfe004 	addi	r2,r2,-128
 8001218:	00c01604 	movi	r3,88
 800121c:	10fff026 	beq	r2,r3,80011e0 <__alt_data_end+0xfc0011e0>
 8001220:	01440034 	movhi	r5,4096
 8001224:	008003c4 	movi	r2,15
 8001228:	297fffc4 	addi	r5,r5,-1
 800122c:	a819883a 	mov	r12,r21
 8001230:	003f9306 	br	8001080 <__alt_data_end+0xfc001080>

08001234 <strtoul>:
 8001234:	2007883a 	mov	r3,r4
 8001238:	01020074 	movhi	r4,2049
 800123c:	2113ff04 	addi	r4,r4,20476
 8001240:	21000017 	ldw	r4,0(r4)
 8001244:	2805883a 	mov	r2,r5
 8001248:	300f883a 	mov	r7,r6
 800124c:	180b883a 	mov	r5,r3
 8001250:	100d883a 	mov	r6,r2
 8001254:	8000fac1 	jmpi	8000fac <_strtoul_r>

08001258 <___svfprintf_internal_r>:
 8001258:	deffb504 	addi	sp,sp,-300
 800125c:	dfc04a15 	stw	ra,296(sp)
 8001260:	ddc04815 	stw	r23,288(sp)
 8001264:	d9002f15 	stw	r4,188(sp)
 8001268:	282f883a 	mov	r23,r5
 800126c:	d9802915 	stw	r6,164(sp)
 8001270:	d9c02d15 	stw	r7,180(sp)
 8001274:	df004915 	stw	fp,292(sp)
 8001278:	dd804715 	stw	r22,284(sp)
 800127c:	dd404615 	stw	r21,280(sp)
 8001280:	dd004515 	stw	r20,276(sp)
 8001284:	dcc04415 	stw	r19,272(sp)
 8001288:	dc804315 	stw	r18,268(sp)
 800128c:	dc404215 	stw	r17,264(sp)
 8001290:	dc004115 	stw	r16,260(sp)
 8001294:	80078880 	call	8007888 <_localeconv_r>
 8001298:	10800017 	ldw	r2,0(r2)
 800129c:	1009883a 	mov	r4,r2
 80012a0:	d8803515 	stw	r2,212(sp)
 80012a4:	80098fc0 	call	80098fc <strlen>
 80012a8:	d8803915 	stw	r2,228(sp)
 80012ac:	b880030b 	ldhu	r2,12(r23)
 80012b0:	1080200c 	andi	r2,r2,128
 80012b4:	10000226 	beq	r2,zero,80012c0 <___svfprintf_internal_r+0x68>
 80012b8:	b8800417 	ldw	r2,16(r23)
 80012bc:	10065d26 	beq	r2,zero,8002c34 <___svfprintf_internal_r+0x19dc>
 80012c0:	db001dc4 	addi	r12,sp,119
 80012c4:	dd801e04 	addi	r22,sp,120
 80012c8:	d8800404 	addi	r2,sp,16
 80012cc:	05020074 	movhi	r20,2049
 80012d0:	b317c83a 	sub	r11,r22,r12
 80012d4:	a50c3384 	addi	r20,r20,12494
 80012d8:	db002815 	stw	r12,160(sp)
 80012dc:	d8801e15 	stw	r2,120(sp)
 80012e0:	d8002015 	stw	zero,128(sp)
 80012e4:	d8001f15 	stw	zero,124(sp)
 80012e8:	d8003315 	stw	zero,204(sp)
 80012ec:	d8003715 	stw	zero,220(sp)
 80012f0:	d8003815 	stw	zero,224(sp)
 80012f4:	d8003b15 	stw	zero,236(sp)
 80012f8:	d8003a15 	stw	zero,232(sp)
 80012fc:	d8003015 	stw	zero,192(sp)
 8001300:	1011883a 	mov	r8,r2
 8001304:	dac03d15 	stw	r11,244(sp)
 8001308:	db002917 	ldw	r12,164(sp)
 800130c:	60800007 	ldb	r2,0(r12)
 8001310:	1000ab26 	beq	r2,zero,80015c0 <___svfprintf_internal_r+0x368>
 8001314:	00c00944 	movi	r3,37
 8001318:	10c0a926 	beq	r2,r3,80015c0 <___svfprintf_internal_r+0x368>
 800131c:	6021883a 	mov	r16,r12
 8001320:	00000106 	br	8001328 <___svfprintf_internal_r+0xd0>
 8001324:	10c08426 	beq	r2,r3,8001538 <___svfprintf_internal_r+0x2e0>
 8001328:	84000044 	addi	r16,r16,1
 800132c:	80800007 	ldb	r2,0(r16)
 8001330:	103ffc1e 	bne	r2,zero,8001324 <__alt_data_end+0xfc001324>
 8001334:	dac02917 	ldw	r11,164(sp)
 8001338:	82e3c83a 	sub	r17,r16,r11
 800133c:	88000f26 	beq	r17,zero,800137c <___svfprintf_internal_r+0x124>
 8001340:	d8c02017 	ldw	r3,128(sp)
 8001344:	d8801f17 	ldw	r2,124(sp)
 8001348:	dac02917 	ldw	r11,164(sp)
 800134c:	1c47883a 	add	r3,r3,r17
 8001350:	10800044 	addi	r2,r2,1
 8001354:	d8c02015 	stw	r3,128(sp)
 8001358:	42c00015 	stw	r11,0(r8)
 800135c:	44400115 	stw	r17,4(r8)
 8001360:	d8801f15 	stw	r2,124(sp)
 8001364:	00c001c4 	movi	r3,7
 8001368:	18807616 	blt	r3,r2,8001544 <___svfprintf_internal_r+0x2ec>
 800136c:	42000204 	addi	r8,r8,8
 8001370:	db003017 	ldw	r12,192(sp)
 8001374:	6459883a 	add	r12,r12,r17
 8001378:	db003015 	stw	r12,192(sp)
 800137c:	80800007 	ldb	r2,0(r16)
 8001380:	10007726 	beq	r2,zero,8001560 <___svfprintf_internal_r+0x308>
 8001384:	80800044 	addi	r2,r16,1
 8001388:	84000047 	ldb	r16,1(r16)
 800138c:	d8002785 	stb	zero,158(sp)
 8001390:	000d883a 	mov	r6,zero
 8001394:	027fffc4 	movi	r9,-1
 8001398:	d8002e15 	stw	zero,184(sp)
 800139c:	0023883a 	mov	r17,zero
 80013a0:	01001604 	movi	r4,88
 80013a4:	01400244 	movi	r5,9
 80013a8:	02800a84 	movi	r10,42
 80013ac:	01c01b04 	movi	r7,108
 80013b0:	10c00044 	addi	r3,r2,1
 80013b4:	80bff804 	addi	r2,r16,-32
 80013b8:	2082e436 	bltu	r4,r2,8001f4c <___svfprintf_internal_r+0xcf4>
 80013bc:	100490ba 	slli	r2,r2,2
 80013c0:	02c20034 	movhi	r11,2048
 80013c4:	5ac4f504 	addi	r11,r11,5076
 80013c8:	12c5883a 	add	r2,r2,r11
 80013cc:	10800017 	ldw	r2,0(r2)
 80013d0:	1000683a 	jmp	r2
 80013d4:	08001d04 	addi	zero,at,116
 80013d8:	08001f4c 	andi	zero,at,125
 80013dc:	08001f4c 	andi	zero,at,125
 80013e0:	08001e84 	addi	zero,at,122
 80013e4:	08001f4c 	andi	zero,at,125
 80013e8:	08001f4c 	andi	zero,at,125
 80013ec:	08001f4c 	andi	zero,at,125
 80013f0:	08001f4c 	andi	zero,at,125
 80013f4:	08001f4c 	andi	zero,at,125
 80013f8:	08001f4c 	andi	zero,at,125
 80013fc:	08001e48 	cmpgei	zero,at,121
 8001400:	08001e74 	orhi	zero,at,121
 8001404:	08001f4c 	andi	zero,at,125
 8001408:	080015c8 	cmpgei	zero,at,87
 800140c:	080015d8 	cmpnei	zero,at,87
 8001410:	08001f4c 	andi	zero,at,125
 8001414:	08001618 	cmpnei	zero,at,88
 8001418:	08001628 	cmpgeui	zero,at,88
 800141c:	08001628 	cmpgeui	zero,at,88
 8001420:	08001628 	cmpgeui	zero,at,88
 8001424:	08001628 	cmpgeui	zero,at,88
 8001428:	08001628 	cmpgeui	zero,at,88
 800142c:	08001628 	cmpgeui	zero,at,88
 8001430:	08001628 	cmpgeui	zero,at,88
 8001434:	08001628 	cmpgeui	zero,at,88
 8001438:	08001628 	cmpgeui	zero,at,88
 800143c:	08001f4c 	andi	zero,at,125
 8001440:	08001f4c 	andi	zero,at,125
 8001444:	08001f4c 	andi	zero,at,125
 8001448:	08001f4c 	andi	zero,at,125
 800144c:	08001f4c 	andi	zero,at,125
 8001450:	08001f4c 	andi	zero,at,125
 8001454:	08001f4c 	andi	zero,at,125
 8001458:	08001f4c 	andi	zero,at,125
 800145c:	08001f4c 	andi	zero,at,125
 8001460:	08001f4c 	andi	zero,at,125
 8001464:	0800165c 	xori	zero,at,89
 8001468:	08001b48 	cmpgei	zero,at,109
 800146c:	08001f4c 	andi	zero,at,125
 8001470:	08001b48 	cmpgei	zero,at,109
 8001474:	08001f4c 	andi	zero,at,125
 8001478:	08001f4c 	andi	zero,at,125
 800147c:	08001f4c 	andi	zero,at,125
 8001480:	08001f4c 	andi	zero,at,125
 8001484:	08001c34 	orhi	zero,at,112
 8001488:	08001f4c 	andi	zero,at,125
 800148c:	08001f4c 	andi	zero,at,125
 8001490:	08001adc 	xori	zero,at,107
 8001494:	08001f4c 	andi	zero,at,125
 8001498:	08001f4c 	andi	zero,at,125
 800149c:	08001f4c 	andi	zero,at,125
 80014a0:	08001f4c 	andi	zero,at,125
 80014a4:	08001f4c 	andi	zero,at,125
 80014a8:	08001b18 	cmpnei	zero,at,108
 80014ac:	08001f4c 	andi	zero,at,125
 80014b0:	08001f4c 	andi	zero,at,125
 80014b4:	08001d24 	muli	zero,at,116
 80014b8:	08001f4c 	andi	zero,at,125
 80014bc:	08001f4c 	andi	zero,at,125
 80014c0:	08001f4c 	andi	zero,at,125
 80014c4:	08001f4c 	andi	zero,at,125
 80014c8:	08001f4c 	andi	zero,at,125
 80014cc:	08001f4c 	andi	zero,at,125
 80014d0:	08001f4c 	andi	zero,at,125
 80014d4:	08001f4c 	andi	zero,at,125
 80014d8:	08001f4c 	andi	zero,at,125
 80014dc:	08001f4c 	andi	zero,at,125
 80014e0:	08001e08 	cmpgei	zero,at,120
 80014e4:	08001c44 	addi	zero,at,113
 80014e8:	08001b48 	cmpgei	zero,at,109
 80014ec:	08001b48 	cmpgei	zero,at,109
 80014f0:	08001b48 	cmpgei	zero,at,109
 80014f4:	08001cac 	andhi	zero,at,114
 80014f8:	08001c44 	addi	zero,at,113
 80014fc:	08001f4c 	andi	zero,at,125
 8001500:	08001f4c 	andi	zero,at,125
 8001504:	08001cbc 	xorhi	zero,at,114
 8001508:	08001f4c 	andi	zero,at,125
 800150c:	08001cd0 	cmplti	zero,at,115
 8001510:	08001f10 	cmplti	zero,at,124
 8001514:	08001bec 	andhi	zero,at,111
 8001518:	08001df8 	rdprs	zero,at,119
 800151c:	08001f4c 	andi	zero,at,125
 8001520:	08001d80 	call	8001d8 <__reset-0x77ffe28>
 8001524:	08001f4c 	andi	zero,at,125
 8001528:	08001ed4 	ori	zero,at,123
 800152c:	08001f4c 	andi	zero,at,125
 8001530:	08001f4c 	andi	zero,at,125
 8001534:	08001e94 	ori	zero,at,122
 8001538:	db002917 	ldw	r12,164(sp)
 800153c:	8323c83a 	sub	r17,r16,r12
 8001540:	003f7e06 	br	800133c <__alt_data_end+0xfc00133c>
 8001544:	d9002f17 	ldw	r4,188(sp)
 8001548:	b80b883a 	mov	r5,r23
 800154c:	b00d883a 	mov	r6,r22
 8001550:	80099940 	call	8009994 <__ssprint_r>
 8001554:	1000081e 	bne	r2,zero,8001578 <___svfprintf_internal_r+0x320>
 8001558:	da000404 	addi	r8,sp,16
 800155c:	003f8406 	br	8001370 <__alt_data_end+0xfc001370>
 8001560:	d8802017 	ldw	r2,128(sp)
 8001564:	10000426 	beq	r2,zero,8001578 <___svfprintf_internal_r+0x320>
 8001568:	d9002f17 	ldw	r4,188(sp)
 800156c:	b80b883a 	mov	r5,r23
 8001570:	d9801e04 	addi	r6,sp,120
 8001574:	80099940 	call	8009994 <__ssprint_r>
 8001578:	b880030b 	ldhu	r2,12(r23)
 800157c:	1080100c 	andi	r2,r2,64
 8001580:	10000d1e 	bne	r2,zero,80015b8 <___svfprintf_internal_r+0x360>
 8001584:	d8803017 	ldw	r2,192(sp)
 8001588:	dfc04a17 	ldw	ra,296(sp)
 800158c:	df004917 	ldw	fp,292(sp)
 8001590:	ddc04817 	ldw	r23,288(sp)
 8001594:	dd804717 	ldw	r22,284(sp)
 8001598:	dd404617 	ldw	r21,280(sp)
 800159c:	dd004517 	ldw	r20,276(sp)
 80015a0:	dcc04417 	ldw	r19,272(sp)
 80015a4:	dc804317 	ldw	r18,268(sp)
 80015a8:	dc404217 	ldw	r17,264(sp)
 80015ac:	dc004117 	ldw	r16,260(sp)
 80015b0:	dec04b04 	addi	sp,sp,300
 80015b4:	f800283a 	ret
 80015b8:	00bfffc4 	movi	r2,-1
 80015bc:	003ff206 	br	8001588 <__alt_data_end+0xfc001588>
 80015c0:	dc002917 	ldw	r16,164(sp)
 80015c4:	003f6d06 	br	800137c <__alt_data_end+0xfc00137c>
 80015c8:	1805883a 	mov	r2,r3
 80015cc:	8c400114 	ori	r17,r17,4
 80015d0:	1c000007 	ldb	r16,0(r3)
 80015d4:	003f7606 	br	80013b0 <__alt_data_end+0xfc0013b0>
 80015d8:	1c000007 	ldb	r16,0(r3)
 80015dc:	18800044 	addi	r2,r3,1
 80015e0:	8286e726 	beq	r16,r10,8003180 <___svfprintf_internal_r+0x1f28>
 80015e4:	82fff404 	addi	r11,r16,-48
 80015e8:	1007883a 	mov	r3,r2
 80015ec:	0013883a 	mov	r9,zero
 80015f0:	2aff7036 	bltu	r5,r11,80013b4 <__alt_data_end+0xfc0013b4>
 80015f4:	1c000007 	ldb	r16,0(r3)
 80015f8:	4a4002a4 	muli	r9,r9,10
 80015fc:	18c00044 	addi	r3,r3,1
 8001600:	5a53883a 	add	r9,r11,r9
 8001604:	82fff404 	addi	r11,r16,-48
 8001608:	2afffa2e 	bgeu	r5,r11,80015f4 <__alt_data_end+0xfc0015f4>
 800160c:	483f690e 	bge	r9,zero,80013b4 <__alt_data_end+0xfc0013b4>
 8001610:	027fffc4 	movi	r9,-1
 8001614:	003f6706 	br	80013b4 <__alt_data_end+0xfc0013b4>
 8001618:	8c402014 	ori	r17,r17,128
 800161c:	1805883a 	mov	r2,r3
 8001620:	1c000007 	ldb	r16,0(r3)
 8001624:	003f6206 	br	80013b0 <__alt_data_end+0xfc0013b0>
 8001628:	1805883a 	mov	r2,r3
 800162c:	d8002e15 	stw	zero,184(sp)
 8001630:	82fff404 	addi	r11,r16,-48
 8001634:	0019883a 	mov	r12,zero
 8001638:	14000007 	ldb	r16,0(r2)
 800163c:	630002a4 	muli	r12,r12,10
 8001640:	18c00044 	addi	r3,r3,1
 8001644:	1805883a 	mov	r2,r3
 8001648:	62d9883a 	add	r12,r12,r11
 800164c:	82fff404 	addi	r11,r16,-48
 8001650:	2afff92e 	bgeu	r5,r11,8001638 <__alt_data_end+0xfc001638>
 8001654:	db002e15 	stw	r12,184(sp)
 8001658:	003f5606 	br	80013b4 <__alt_data_end+0xfc0013b4>
 800165c:	8c400414 	ori	r17,r17,16
 8001660:	d8c02915 	stw	r3,164(sp)
 8001664:	d9802785 	stb	r6,158(sp)
 8001668:	8880080c 	andi	r2,r17,32
 800166c:	d8c02d17 	ldw	r3,180(sp)
 8001670:	10017926 	beq	r2,zero,8001c58 <___svfprintf_internal_r+0xa00>
 8001674:	db002d17 	ldw	r12,180(sp)
 8001678:	18800117 	ldw	r2,4(r3)
 800167c:	1cc00017 	ldw	r19,0(r3)
 8001680:	63000204 	addi	r12,r12,8
 8001684:	db002d15 	stw	r12,180(sp)
 8001688:	1039883a 	mov	fp,r2
 800168c:	10017d16 	blt	r2,zero,8001c84 <___svfprintf_internal_r+0xa2c>
 8001690:	dd402783 	ldbu	r21,158(sp)
 8001694:	da403215 	stw	r9,200(sp)
 8001698:	00800044 	movi	r2,1
 800169c:	9f06b03a 	or	r3,r19,fp
 80016a0:	48000216 	blt	r9,zero,80016ac <___svfprintf_internal_r+0x454>
 80016a4:	013fdfc4 	movi	r4,-129
 80016a8:	8922703a 	and	r17,r17,r4
 80016ac:	1802371e 	bne	r3,zero,8001f8c <___svfprintf_internal_r+0xd34>
 80016b0:	48034526 	beq	r9,zero,80023c8 <___svfprintf_internal_r+0x1170>
 80016b4:	10803fcc 	andi	r2,r2,255
 80016b8:	00c00044 	movi	r3,1
 80016bc:	10c25826 	beq	r2,r3,8002020 <___svfprintf_internal_r+0xdc8>
 80016c0:	00c00084 	movi	r3,2
 80016c4:	10c2db26 	beq	r2,r3,8002234 <___svfprintf_internal_r+0xfdc>
 80016c8:	b007883a 	mov	r3,r22
 80016cc:	9808d0fa 	srli	r4,r19,3
 80016d0:	e00a977a 	slli	r5,fp,29
 80016d4:	e038d0fa 	srli	fp,fp,3
 80016d8:	9cc001cc 	andi	r19,r19,7
 80016dc:	98800c04 	addi	r2,r19,48
 80016e0:	18ffffc4 	addi	r3,r3,-1
 80016e4:	2926b03a 	or	r19,r5,r4
 80016e8:	18800005 	stb	r2,0(r3)
 80016ec:	9f08b03a 	or	r4,r19,fp
 80016f0:	203ff61e 	bne	r4,zero,80016cc <__alt_data_end+0xfc0016cc>
 80016f4:	8900004c 	andi	r4,r17,1
 80016f8:	d8c03115 	stw	r3,196(sp)
 80016fc:	2002db26 	beq	r4,zero,800226c <___svfprintf_internal_r+0x1014>
 8001700:	10803fcc 	andi	r2,r2,255
 8001704:	1080201c 	xori	r2,r2,128
 8001708:	10bfe004 	addi	r2,r2,-128
 800170c:	01000c04 	movi	r4,48
 8001710:	11056626 	beq	r2,r4,8002cac <___svfprintf_internal_r+0x1a54>
 8001714:	dac03117 	ldw	r11,196(sp)
 8001718:	193fffc5 	stb	r4,-1(r3)
 800171c:	5affffc4 	addi	r11,r11,-1
 8001720:	dac03115 	stw	r11,196(sp)
 8001724:	b2e5c83a 	sub	r18,r22,r11
 8001728:	9005883a 	mov	r2,r18
 800172c:	9240010e 	bge	r18,r9,8001734 <___svfprintf_internal_r+0x4dc>
 8001730:	4805883a 	mov	r2,r9
 8001734:	d8802a15 	stw	r2,168(sp)
 8001738:	d8003415 	stw	zero,208(sp)
 800173c:	a8803fcc 	andi	r2,r21,255
 8001740:	1080201c 	xori	r2,r2,128
 8001744:	10bfe004 	addi	r2,r2,-128
 8001748:	10000326 	beq	r2,zero,8001758 <___svfprintf_internal_r+0x500>
 800174c:	d8c02a17 	ldw	r3,168(sp)
 8001750:	18c00044 	addi	r3,r3,1
 8001754:	d8c02a15 	stw	r3,168(sp)
 8001758:	8ac0008c 	andi	r11,r17,2
 800175c:	dac02b15 	stw	r11,172(sp)
 8001760:	58000326 	beq	r11,zero,8001770 <___svfprintf_internal_r+0x518>
 8001764:	db002a17 	ldw	r12,168(sp)
 8001768:	63000084 	addi	r12,r12,2
 800176c:	db002a15 	stw	r12,168(sp)
 8001770:	88c0210c 	andi	r3,r17,132
 8001774:	d8c02c15 	stw	r3,176(sp)
 8001778:	1802021e 	bne	r3,zero,8001f84 <___svfprintf_internal_r+0xd2c>
 800177c:	dac02e17 	ldw	r11,184(sp)
 8001780:	db002a17 	ldw	r12,168(sp)
 8001784:	5b39c83a 	sub	fp,r11,r12
 8001788:	0701fe0e 	bge	zero,fp,8001f84 <___svfprintf_internal_r+0xd2c>
 800178c:	02400404 	movi	r9,16
 8001790:	d8c02017 	ldw	r3,128(sp)
 8001794:	d8801f17 	ldw	r2,124(sp)
 8001798:	4f057d0e 	bge	r9,fp,8002d90 <___svfprintf_internal_r+0x1b38>
 800179c:	01420074 	movhi	r5,2049
 80017a0:	e009883a 	mov	r4,fp
 80017a4:	294c3784 	addi	r5,r5,12510
 80017a8:	dc003c15 	stw	r16,240(sp)
 80017ac:	9039883a 	mov	fp,r18
 80017b0:	d9403615 	stw	r5,216(sp)
 80017b4:	8825883a 	mov	r18,r17
 80017b8:	482b883a 	mov	r21,r9
 80017bc:	04c001c4 	movi	r19,7
 80017c0:	dc002f17 	ldw	r16,188(sp)
 80017c4:	2023883a 	mov	r17,r4
 80017c8:	00000306 	br	80017d8 <___svfprintf_internal_r+0x580>
 80017cc:	8c7ffc04 	addi	r17,r17,-16
 80017d0:	42000204 	addi	r8,r8,8
 80017d4:	ac40130e 	bge	r21,r17,8001824 <___svfprintf_internal_r+0x5cc>
 80017d8:	02c20074 	movhi	r11,2049
 80017dc:	18c00404 	addi	r3,r3,16
 80017e0:	10800044 	addi	r2,r2,1
 80017e4:	5acc3784 	addi	r11,r11,12510
 80017e8:	42c00015 	stw	r11,0(r8)
 80017ec:	45400115 	stw	r21,4(r8)
 80017f0:	d8c02015 	stw	r3,128(sp)
 80017f4:	d8801f15 	stw	r2,124(sp)
 80017f8:	98bff40e 	bge	r19,r2,80017cc <__alt_data_end+0xfc0017cc>
 80017fc:	8009883a 	mov	r4,r16
 8001800:	b80b883a 	mov	r5,r23
 8001804:	b00d883a 	mov	r6,r22
 8001808:	80099940 	call	8009994 <__ssprint_r>
 800180c:	103f5a1e 	bne	r2,zero,8001578 <__alt_data_end+0xfc001578>
 8001810:	8c7ffc04 	addi	r17,r17,-16
 8001814:	d8c02017 	ldw	r3,128(sp)
 8001818:	d8801f17 	ldw	r2,124(sp)
 800181c:	da000404 	addi	r8,sp,16
 8001820:	ac7fed16 	blt	r21,r17,80017d8 <__alt_data_end+0xfc0017d8>
 8001824:	dc003c17 	ldw	r16,240(sp)
 8001828:	8809883a 	mov	r4,r17
 800182c:	9023883a 	mov	r17,r18
 8001830:	e025883a 	mov	r18,fp
 8001834:	2039883a 	mov	fp,r4
 8001838:	db003617 	ldw	r12,216(sp)
 800183c:	e0c7883a 	add	r3,fp,r3
 8001840:	10800044 	addi	r2,r2,1
 8001844:	43000015 	stw	r12,0(r8)
 8001848:	47000115 	stw	fp,4(r8)
 800184c:	d8c02015 	stw	r3,128(sp)
 8001850:	d8801f15 	stw	r2,124(sp)
 8001854:	010001c4 	movi	r4,7
 8001858:	20833516 	blt	r4,r2,8002530 <___svfprintf_internal_r+0x12d8>
 800185c:	d8802787 	ldb	r2,158(sp)
 8001860:	42000204 	addi	r8,r8,8
 8001864:	10000c26 	beq	r2,zero,8001898 <___svfprintf_internal_r+0x640>
 8001868:	d8801f17 	ldw	r2,124(sp)
 800186c:	d9002784 	addi	r4,sp,158
 8001870:	18c00044 	addi	r3,r3,1
 8001874:	10800044 	addi	r2,r2,1
 8001878:	41000015 	stw	r4,0(r8)
 800187c:	01000044 	movi	r4,1
 8001880:	41000115 	stw	r4,4(r8)
 8001884:	d8c02015 	stw	r3,128(sp)
 8001888:	d8801f15 	stw	r2,124(sp)
 800188c:	010001c4 	movi	r4,7
 8001890:	2082df16 	blt	r4,r2,8002410 <___svfprintf_internal_r+0x11b8>
 8001894:	42000204 	addi	r8,r8,8
 8001898:	dac02b17 	ldw	r11,172(sp)
 800189c:	58000c26 	beq	r11,zero,80018d0 <___svfprintf_internal_r+0x678>
 80018a0:	d8801f17 	ldw	r2,124(sp)
 80018a4:	d9002704 	addi	r4,sp,156
 80018a8:	18c00084 	addi	r3,r3,2
 80018ac:	10800044 	addi	r2,r2,1
 80018b0:	41000015 	stw	r4,0(r8)
 80018b4:	01000084 	movi	r4,2
 80018b8:	41000115 	stw	r4,4(r8)
 80018bc:	d8c02015 	stw	r3,128(sp)
 80018c0:	d8801f15 	stw	r2,124(sp)
 80018c4:	010001c4 	movi	r4,7
 80018c8:	2082d916 	blt	r4,r2,8002430 <___svfprintf_internal_r+0x11d8>
 80018cc:	42000204 	addi	r8,r8,8
 80018d0:	db002c17 	ldw	r12,176(sp)
 80018d4:	00802004 	movi	r2,128
 80018d8:	60822026 	beq	r12,r2,800215c <___svfprintf_internal_r+0xf04>
 80018dc:	db003217 	ldw	r12,200(sp)
 80018e0:	64abc83a 	sub	r21,r12,r18
 80018e4:	0540310e 	bge	zero,r21,80019ac <___svfprintf_internal_r+0x754>
 80018e8:	07000404 	movi	fp,16
 80018ec:	d8801f17 	ldw	r2,124(sp)
 80018f0:	e544180e 	bge	fp,r21,8002954 <___svfprintf_internal_r+0x16fc>
 80018f4:	01420074 	movhi	r5,2049
 80018f8:	a809883a 	mov	r4,r21
 80018fc:	294c3384 	addi	r5,r5,12494
 8001900:	dc002c15 	stw	r16,176(sp)
 8001904:	902b883a 	mov	r21,r18
 8001908:	d9402b15 	stw	r5,172(sp)
 800190c:	8825883a 	mov	r18,r17
 8001910:	04c001c4 	movi	r19,7
 8001914:	dc002f17 	ldw	r16,188(sp)
 8001918:	2023883a 	mov	r17,r4
 800191c:	00000306 	br	800192c <___svfprintf_internal_r+0x6d4>
 8001920:	8c7ffc04 	addi	r17,r17,-16
 8001924:	42000204 	addi	r8,r8,8
 8001928:	e440110e 	bge	fp,r17,8001970 <___svfprintf_internal_r+0x718>
 800192c:	18c00404 	addi	r3,r3,16
 8001930:	10800044 	addi	r2,r2,1
 8001934:	45000015 	stw	r20,0(r8)
 8001938:	47000115 	stw	fp,4(r8)
 800193c:	d8c02015 	stw	r3,128(sp)
 8001940:	d8801f15 	stw	r2,124(sp)
 8001944:	98bff60e 	bge	r19,r2,8001920 <__alt_data_end+0xfc001920>
 8001948:	8009883a 	mov	r4,r16
 800194c:	b80b883a 	mov	r5,r23
 8001950:	b00d883a 	mov	r6,r22
 8001954:	80099940 	call	8009994 <__ssprint_r>
 8001958:	103f071e 	bne	r2,zero,8001578 <__alt_data_end+0xfc001578>
 800195c:	8c7ffc04 	addi	r17,r17,-16
 8001960:	d8c02017 	ldw	r3,128(sp)
 8001964:	d8801f17 	ldw	r2,124(sp)
 8001968:	da000404 	addi	r8,sp,16
 800196c:	e47fef16 	blt	fp,r17,800192c <__alt_data_end+0xfc00192c>
 8001970:	dc002c17 	ldw	r16,176(sp)
 8001974:	8809883a 	mov	r4,r17
 8001978:	9023883a 	mov	r17,r18
 800197c:	a825883a 	mov	r18,r21
 8001980:	202b883a 	mov	r21,r4
 8001984:	dac02b17 	ldw	r11,172(sp)
 8001988:	1d47883a 	add	r3,r3,r21
 800198c:	10800044 	addi	r2,r2,1
 8001990:	42c00015 	stw	r11,0(r8)
 8001994:	45400115 	stw	r21,4(r8)
 8001998:	d8c02015 	stw	r3,128(sp)
 800199c:	d8801f15 	stw	r2,124(sp)
 80019a0:	010001c4 	movi	r4,7
 80019a4:	20829216 	blt	r4,r2,80023f0 <___svfprintf_internal_r+0x1198>
 80019a8:	42000204 	addi	r8,r8,8
 80019ac:	8880400c 	andi	r2,r17,256
 80019b0:	1001a11e 	bne	r2,zero,8002038 <___svfprintf_internal_r+0xde0>
 80019b4:	d8801f17 	ldw	r2,124(sp)
 80019b8:	db003117 	ldw	r12,196(sp)
 80019bc:	1c87883a 	add	r3,r3,r18
 80019c0:	10800044 	addi	r2,r2,1
 80019c4:	43000015 	stw	r12,0(r8)
 80019c8:	44800115 	stw	r18,4(r8)
 80019cc:	d8c02015 	stw	r3,128(sp)
 80019d0:	d8801f15 	stw	r2,124(sp)
 80019d4:	010001c4 	movi	r4,7
 80019d8:	20826d16 	blt	r4,r2,8002390 <___svfprintf_internal_r+0x1138>
 80019dc:	42000204 	addi	r8,r8,8
 80019e0:	8c40010c 	andi	r17,r17,4
 80019e4:	88003226 	beq	r17,zero,8001ab0 <___svfprintf_internal_r+0x858>
 80019e8:	db002e17 	ldw	r12,184(sp)
 80019ec:	dac02a17 	ldw	r11,168(sp)
 80019f0:	62e1c83a 	sub	r16,r12,r11
 80019f4:	04002e0e 	bge	zero,r16,8001ab0 <___svfprintf_internal_r+0x858>
 80019f8:	04400404 	movi	r17,16
 80019fc:	d8801f17 	ldw	r2,124(sp)
 8001a00:	8c05240e 	bge	r17,r16,8002e94 <___svfprintf_internal_r+0x1c3c>
 8001a04:	01020074 	movhi	r4,2049
 8001a08:	210c3784 	addi	r4,r4,12510
 8001a0c:	d9003615 	stw	r4,216(sp)
 8001a10:	048001c4 	movi	r18,7
 8001a14:	dcc02f17 	ldw	r19,188(sp)
 8001a18:	00000306 	br	8001a28 <___svfprintf_internal_r+0x7d0>
 8001a1c:	843ffc04 	addi	r16,r16,-16
 8001a20:	42000204 	addi	r8,r8,8
 8001a24:	8c00130e 	bge	r17,r16,8001a74 <___svfprintf_internal_r+0x81c>
 8001a28:	01420074 	movhi	r5,2049
 8001a2c:	18c00404 	addi	r3,r3,16
 8001a30:	10800044 	addi	r2,r2,1
 8001a34:	294c3784 	addi	r5,r5,12510
 8001a38:	41400015 	stw	r5,0(r8)
 8001a3c:	44400115 	stw	r17,4(r8)
 8001a40:	d8c02015 	stw	r3,128(sp)
 8001a44:	d8801f15 	stw	r2,124(sp)
 8001a48:	90bff40e 	bge	r18,r2,8001a1c <__alt_data_end+0xfc001a1c>
 8001a4c:	9809883a 	mov	r4,r19
 8001a50:	b80b883a 	mov	r5,r23
 8001a54:	b00d883a 	mov	r6,r22
 8001a58:	80099940 	call	8009994 <__ssprint_r>
 8001a5c:	103ec61e 	bne	r2,zero,8001578 <__alt_data_end+0xfc001578>
 8001a60:	843ffc04 	addi	r16,r16,-16
 8001a64:	d8c02017 	ldw	r3,128(sp)
 8001a68:	d8801f17 	ldw	r2,124(sp)
 8001a6c:	da000404 	addi	r8,sp,16
 8001a70:	8c3fed16 	blt	r17,r16,8001a28 <__alt_data_end+0xfc001a28>
 8001a74:	dac03617 	ldw	r11,216(sp)
 8001a78:	1c07883a 	add	r3,r3,r16
 8001a7c:	10800044 	addi	r2,r2,1
 8001a80:	42c00015 	stw	r11,0(r8)
 8001a84:	44000115 	stw	r16,4(r8)
 8001a88:	d8c02015 	stw	r3,128(sp)
 8001a8c:	d8801f15 	stw	r2,124(sp)
 8001a90:	010001c4 	movi	r4,7
 8001a94:	2080060e 	bge	r4,r2,8001ab0 <___svfprintf_internal_r+0x858>
 8001a98:	d9002f17 	ldw	r4,188(sp)
 8001a9c:	b80b883a 	mov	r5,r23
 8001aa0:	b00d883a 	mov	r6,r22
 8001aa4:	80099940 	call	8009994 <__ssprint_r>
 8001aa8:	103eb31e 	bne	r2,zero,8001578 <__alt_data_end+0xfc001578>
 8001aac:	d8c02017 	ldw	r3,128(sp)
 8001ab0:	d8802a17 	ldw	r2,168(sp)
 8001ab4:	db002e17 	ldw	r12,184(sp)
 8001ab8:	1300010e 	bge	r2,r12,8001ac0 <___svfprintf_internal_r+0x868>
 8001abc:	6005883a 	mov	r2,r12
 8001ac0:	dac03017 	ldw	r11,192(sp)
 8001ac4:	5897883a 	add	r11,r11,r2
 8001ac8:	dac03015 	stw	r11,192(sp)
 8001acc:	1802381e 	bne	r3,zero,80023b0 <___svfprintf_internal_r+0x1158>
 8001ad0:	d8001f15 	stw	zero,124(sp)
 8001ad4:	da000404 	addi	r8,sp,16
 8001ad8:	003e0b06 	br	8001308 <__alt_data_end+0xfc001308>
 8001adc:	8c400414 	ori	r17,r17,16
 8001ae0:	d8c02915 	stw	r3,164(sp)
 8001ae4:	8880080c 	andi	r2,r17,32
 8001ae8:	10010c26 	beq	r2,zero,8001f1c <___svfprintf_internal_r+0xcc4>
 8001aec:	db002d17 	ldw	r12,180(sp)
 8001af0:	0005883a 	mov	r2,zero
 8001af4:	64c00017 	ldw	r19,0(r12)
 8001af8:	67000117 	ldw	fp,4(r12)
 8001afc:	63000204 	addi	r12,r12,8
 8001b00:	db002d15 	stw	r12,180(sp)
 8001b04:	9f06b03a 	or	r3,r19,fp
 8001b08:	d8002785 	stb	zero,158(sp)
 8001b0c:	da403215 	stw	r9,200(sp)
 8001b10:	002b883a 	mov	r21,zero
 8001b14:	003ee206 	br	80016a0 <__alt_data_end+0xfc0016a0>
 8001b18:	8c400414 	ori	r17,r17,16
 8001b1c:	d8c02915 	stw	r3,164(sp)
 8001b20:	8880080c 	andi	r2,r17,32
 8001b24:	1000ee26 	beq	r2,zero,8001ee0 <___svfprintf_internal_r+0xc88>
 8001b28:	dac02d17 	ldw	r11,180(sp)
 8001b2c:	00800044 	movi	r2,1
 8001b30:	5cc00017 	ldw	r19,0(r11)
 8001b34:	5f000117 	ldw	fp,4(r11)
 8001b38:	5ac00204 	addi	r11,r11,8
 8001b3c:	dac02d15 	stw	r11,180(sp)
 8001b40:	9f06b03a 	or	r3,r19,fp
 8001b44:	003ff006 	br	8001b08 <__alt_data_end+0xfc001b08>
 8001b48:	db002d17 	ldw	r12,180(sp)
 8001b4c:	dac02d17 	ldw	r11,180(sp)
 8001b50:	d8c02915 	stw	r3,164(sp)
 8001b54:	63000017 	ldw	r12,0(r12)
 8001b58:	5ac00117 	ldw	r11,4(r11)
 8001b5c:	d9802785 	stb	r6,158(sp)
 8001b60:	6009883a 	mov	r4,r12
 8001b64:	580b883a 	mov	r5,r11
 8001b68:	db003715 	stw	r12,220(sp)
 8001b6c:	da004015 	stw	r8,256(sp)
 8001b70:	da403f15 	stw	r9,252(sp)
 8001b74:	dac03815 	stw	r11,224(sp)
 8001b78:	80096540 	call	8009654 <__fpclassifyd>
 8001b7c:	db002d17 	ldw	r12,180(sp)
 8001b80:	04800044 	movi	r18,1
 8001b84:	da004017 	ldw	r8,256(sp)
 8001b88:	64c00204 	addi	r19,r12,8
 8001b8c:	da403f17 	ldw	r9,252(sp)
 8001b90:	d9003717 	ldw	r4,220(sp)
 8001b94:	d9403817 	ldw	r5,224(sp)
 8001b98:	14832c1e 	bne	r2,r18,800284c <___svfprintf_internal_r+0x15f4>
 8001b9c:	000d883a 	mov	r6,zero
 8001ba0:	000f883a 	mov	r7,zero
 8001ba4:	800f4780 	call	800f478 <__ledf2>
 8001ba8:	da004017 	ldw	r8,256(sp)
 8001bac:	1004c416 	blt	r2,zero,8002ec0 <___svfprintf_internal_r+0x1c68>
 8001bb0:	dd402783 	ldbu	r21,158(sp)
 8001bb4:	008011c4 	movi	r2,71
 8001bb8:	14041a0e 	bge	r2,r16,8002c24 <___svfprintf_internal_r+0x19cc>
 8001bbc:	00c20074 	movhi	r3,2049
 8001bc0:	18cc2404 	addi	r3,r3,12432
 8001bc4:	d8c03115 	stw	r3,196(sp)
 8001bc8:	02c000c4 	movi	r11,3
 8001bcc:	00bfdfc4 	movi	r2,-129
 8001bd0:	dac02a15 	stw	r11,168(sp)
 8001bd4:	88a2703a 	and	r17,r17,r2
 8001bd8:	dcc02d15 	stw	r19,180(sp)
 8001bdc:	5825883a 	mov	r18,r11
 8001be0:	d8003215 	stw	zero,200(sp)
 8001be4:	d8003415 	stw	zero,208(sp)
 8001be8:	003ed406 	br	800173c <__alt_data_end+0xfc00173c>
 8001bec:	db002d17 	ldw	r12,180(sp)
 8001bf0:	00800c04 	movi	r2,48
 8001bf4:	d8802705 	stb	r2,156(sp)
 8001bf8:	64c00017 	ldw	r19,0(r12)
 8001bfc:	00801e04 	movi	r2,120
 8001c00:	d8802745 	stb	r2,157(sp)
 8001c04:	00820074 	movhi	r2,2049
 8001c08:	108c2c04 	addi	r2,r2,12464
 8001c0c:	63000104 	addi	r12,r12,4
 8001c10:	d8c02915 	stw	r3,164(sp)
 8001c14:	d8803b15 	stw	r2,236(sp)
 8001c18:	0039883a 	mov	fp,zero
 8001c1c:	8c400094 	ori	r17,r17,2
 8001c20:	db002d15 	stw	r12,180(sp)
 8001c24:	00800084 	movi	r2,2
 8001c28:	04001e04 	movi	r16,120
 8001c2c:	9807883a 	mov	r3,r19
 8001c30:	003fb506 	br	8001b08 <__alt_data_end+0xfc001b08>
 8001c34:	8c400214 	ori	r17,r17,8
 8001c38:	1805883a 	mov	r2,r3
 8001c3c:	1c000007 	ldb	r16,0(r3)
 8001c40:	003ddb06 	br	80013b0 <__alt_data_end+0xfc0013b0>
 8001c44:	d8c02915 	stw	r3,164(sp)
 8001c48:	d9802785 	stb	r6,158(sp)
 8001c4c:	8880080c 	andi	r2,r17,32
 8001c50:	d8c02d17 	ldw	r3,180(sp)
 8001c54:	103e871e 	bne	r2,zero,8001674 <__alt_data_end+0xfc001674>
 8001c58:	8880040c 	andi	r2,r17,16
 8001c5c:	10027a1e 	bne	r2,zero,8002648 <___svfprintf_internal_r+0x13f0>
 8001c60:	8880100c 	andi	r2,r17,64
 8001c64:	10027826 	beq	r2,zero,8002648 <___svfprintf_internal_r+0x13f0>
 8001c68:	1cc0000f 	ldh	r19,0(r3)
 8001c6c:	db002d17 	ldw	r12,180(sp)
 8001c70:	9839d7fa 	srai	fp,r19,31
 8001c74:	63000104 	addi	r12,r12,4
 8001c78:	db002d15 	stw	r12,180(sp)
 8001c7c:	e005883a 	mov	r2,fp
 8001c80:	103e830e 	bge	r2,zero,8001690 <__alt_data_end+0xfc001690>
 8001c84:	04e7c83a 	sub	r19,zero,r19
 8001c88:	9804c03a 	cmpne	r2,r19,zero
 8001c8c:	0739c83a 	sub	fp,zero,fp
 8001c90:	e0b9c83a 	sub	fp,fp,r2
 8001c94:	05400b44 	movi	r21,45
 8001c98:	dd402785 	stb	r21,158(sp)
 8001c9c:	da403215 	stw	r9,200(sp)
 8001ca0:	00800044 	movi	r2,1
 8001ca4:	9f06b03a 	or	r3,r19,fp
 8001ca8:	003e7d06 	br	80016a0 <__alt_data_end+0xfc0016a0>
 8001cac:	8c401014 	ori	r17,r17,64
 8001cb0:	1805883a 	mov	r2,r3
 8001cb4:	1c000007 	ldb	r16,0(r3)
 8001cb8:	003dbd06 	br	80013b0 <__alt_data_end+0xfc0013b0>
 8001cbc:	1c000007 	ldb	r16,0(r3)
 8001cc0:	81c37126 	beq	r16,r7,8002a88 <___svfprintf_internal_r+0x1830>
 8001cc4:	8c400414 	ori	r17,r17,16
 8001cc8:	1805883a 	mov	r2,r3
 8001ccc:	003db806 	br	80013b0 <__alt_data_end+0xfc0013b0>
 8001cd0:	d8c02915 	stw	r3,164(sp)
 8001cd4:	d9802785 	stb	r6,158(sp)
 8001cd8:	8880080c 	andi	r2,r17,32
 8001cdc:	1002f026 	beq	r2,zero,80028a0 <___svfprintf_internal_r+0x1648>
 8001ce0:	db002d17 	ldw	r12,180(sp)
 8001ce4:	dac03017 	ldw	r11,192(sp)
 8001ce8:	60800017 	ldw	r2,0(r12)
 8001cec:	5807d7fa 	srai	r3,r11,31
 8001cf0:	63000104 	addi	r12,r12,4
 8001cf4:	db002d15 	stw	r12,180(sp)
 8001cf8:	12c00015 	stw	r11,0(r2)
 8001cfc:	10c00115 	stw	r3,4(r2)
 8001d00:	003d8106 	br	8001308 <__alt_data_end+0xfc001308>
 8001d04:	30803fcc 	andi	r2,r6,255
 8001d08:	1080201c 	xori	r2,r2,128
 8001d0c:	10bfe004 	addi	r2,r2,-128
 8001d10:	1002fd1e 	bne	r2,zero,8002908 <___svfprintf_internal_r+0x16b0>
 8001d14:	1805883a 	mov	r2,r3
 8001d18:	01800804 	movi	r6,32
 8001d1c:	1c000007 	ldb	r16,0(r3)
 8001d20:	003da306 	br	80013b0 <__alt_data_end+0xfc0013b0>
 8001d24:	03020074 	movhi	r12,2049
 8001d28:	630c2704 	addi	r12,r12,12444
 8001d2c:	d8c02915 	stw	r3,164(sp)
 8001d30:	d9802785 	stb	r6,158(sp)
 8001d34:	db003b15 	stw	r12,236(sp)
 8001d38:	88c0080c 	andi	r3,r17,32
 8001d3c:	d8802d17 	ldw	r2,180(sp)
 8001d40:	18005c26 	beq	r3,zero,8001eb4 <___svfprintf_internal_r+0xc5c>
 8001d44:	dac02d17 	ldw	r11,180(sp)
 8001d48:	14c00017 	ldw	r19,0(r2)
 8001d4c:	17000117 	ldw	fp,4(r2)
 8001d50:	5ac00204 	addi	r11,r11,8
 8001d54:	dac02d15 	stw	r11,180(sp)
 8001d58:	8880004c 	andi	r2,r17,1
 8001d5c:	10022f26 	beq	r2,zero,800261c <___svfprintf_internal_r+0x13c4>
 8001d60:	9f06b03a 	or	r3,r19,fp
 8001d64:	1802eb26 	beq	r3,zero,8002914 <___svfprintf_internal_r+0x16bc>
 8001d68:	00800c04 	movi	r2,48
 8001d6c:	d8802705 	stb	r2,156(sp)
 8001d70:	dc002745 	stb	r16,157(sp)
 8001d74:	8c400094 	ori	r17,r17,2
 8001d78:	00800084 	movi	r2,2
 8001d7c:	003f6206 	br	8001b08 <__alt_data_end+0xfc001b08>
 8001d80:	dac02d17 	ldw	r11,180(sp)
 8001d84:	db002d17 	ldw	r12,180(sp)
 8001d88:	d8c02915 	stw	r3,164(sp)
 8001d8c:	5ac00017 	ldw	r11,0(r11)
 8001d90:	d8002785 	stb	zero,158(sp)
 8001d94:	64c00104 	addi	r19,r12,4
 8001d98:	dac03115 	stw	r11,196(sp)
 8001d9c:	58042e26 	beq	r11,zero,8002e58 <___svfprintf_internal_r+0x1c00>
 8001da0:	d9003117 	ldw	r4,196(sp)
 8001da4:	4803c416 	blt	r9,zero,8002cb8 <___svfprintf_internal_r+0x1a60>
 8001da8:	480d883a 	mov	r6,r9
 8001dac:	000b883a 	mov	r5,zero
 8001db0:	da004015 	stw	r8,256(sp)
 8001db4:	da403f15 	stw	r9,252(sp)
 8001db8:	800821c0 	call	800821c <memchr>
 8001dbc:	da004017 	ldw	r8,256(sp)
 8001dc0:	da403f17 	ldw	r9,252(sp)
 8001dc4:	10048a26 	beq	r2,zero,8002ff0 <___svfprintf_internal_r+0x1d98>
 8001dc8:	d8c03117 	ldw	r3,196(sp)
 8001dcc:	10e5c83a 	sub	r18,r2,r3
 8001dd0:	4c80010e 	bge	r9,r18,8001dd8 <___svfprintf_internal_r+0xb80>
 8001dd4:	4825883a 	mov	r18,r9
 8001dd8:	9005883a 	mov	r2,r18
 8001ddc:	9003bb16 	blt	r18,zero,8002ccc <___svfprintf_internal_r+0x1a74>
 8001de0:	dd402783 	ldbu	r21,158(sp)
 8001de4:	d8802a15 	stw	r2,168(sp)
 8001de8:	dcc02d15 	stw	r19,180(sp)
 8001dec:	d8003215 	stw	zero,200(sp)
 8001df0:	d8003415 	stw	zero,208(sp)
 8001df4:	003e5106 	br	800173c <__alt_data_end+0xfc00173c>
 8001df8:	8c400814 	ori	r17,r17,32
 8001dfc:	1805883a 	mov	r2,r3
 8001e00:	1c000007 	ldb	r16,0(r3)
 8001e04:	003d6a06 	br	80013b0 <__alt_data_end+0xfc0013b0>
 8001e08:	db002d17 	ldw	r12,180(sp)
 8001e0c:	d8c02915 	stw	r3,164(sp)
 8001e10:	dac01404 	addi	r11,sp,80
 8001e14:	60800017 	ldw	r2,0(r12)
 8001e18:	00c00044 	movi	r3,1
 8001e1c:	63000104 	addi	r12,r12,4
 8001e20:	d8801405 	stb	r2,80(sp)
 8001e24:	d8c02a15 	stw	r3,168(sp)
 8001e28:	d8002785 	stb	zero,158(sp)
 8001e2c:	db002d15 	stw	r12,180(sp)
 8001e30:	1825883a 	mov	r18,r3
 8001e34:	d8003215 	stw	zero,200(sp)
 8001e38:	d8003415 	stw	zero,208(sp)
 8001e3c:	dac03115 	stw	r11,196(sp)
 8001e40:	0005883a 	mov	r2,zero
 8001e44:	003e4406 	br	8001758 <__alt_data_end+0xfc001758>
 8001e48:	dac02d17 	ldw	r11,180(sp)
 8001e4c:	db002d17 	ldw	r12,180(sp)
 8001e50:	5ac00017 	ldw	r11,0(r11)
 8001e54:	dac02e15 	stw	r11,184(sp)
 8001e58:	62c00104 	addi	r11,r12,4
 8001e5c:	db002e17 	ldw	r12,184(sp)
 8001e60:	60030316 	blt	r12,zero,8002a70 <___svfprintf_internal_r+0x1818>
 8001e64:	dac02d15 	stw	r11,180(sp)
 8001e68:	1805883a 	mov	r2,r3
 8001e6c:	1c000007 	ldb	r16,0(r3)
 8001e70:	003d4f06 	br	80013b0 <__alt_data_end+0xfc0013b0>
 8001e74:	1805883a 	mov	r2,r3
 8001e78:	01800ac4 	movi	r6,43
 8001e7c:	1c000007 	ldb	r16,0(r3)
 8001e80:	003d4b06 	br	80013b0 <__alt_data_end+0xfc0013b0>
 8001e84:	8c400054 	ori	r17,r17,1
 8001e88:	1805883a 	mov	r2,r3
 8001e8c:	1c000007 	ldb	r16,0(r3)
 8001e90:	003d4706 	br	80013b0 <__alt_data_end+0xfc0013b0>
 8001e94:	00820074 	movhi	r2,2049
 8001e98:	108c2c04 	addi	r2,r2,12464
 8001e9c:	d8c02915 	stw	r3,164(sp)
 8001ea0:	d8803b15 	stw	r2,236(sp)
 8001ea4:	d9802785 	stb	r6,158(sp)
 8001ea8:	88c0080c 	andi	r3,r17,32
 8001eac:	d8802d17 	ldw	r2,180(sp)
 8001eb0:	183fa41e 	bne	r3,zero,8001d44 <__alt_data_end+0xfc001d44>
 8001eb4:	88c0040c 	andi	r3,r17,16
 8001eb8:	18028b26 	beq	r3,zero,80028e8 <___svfprintf_internal_r+0x1690>
 8001ebc:	db002d17 	ldw	r12,180(sp)
 8001ec0:	14c00017 	ldw	r19,0(r2)
 8001ec4:	0039883a 	mov	fp,zero
 8001ec8:	63000104 	addi	r12,r12,4
 8001ecc:	db002d15 	stw	r12,180(sp)
 8001ed0:	003fa106 	br	8001d58 <__alt_data_end+0xfc001d58>
 8001ed4:	d8c02915 	stw	r3,164(sp)
 8001ed8:	8880080c 	andi	r2,r17,32
 8001edc:	103f121e 	bne	r2,zero,8001b28 <__alt_data_end+0xfc001b28>
 8001ee0:	8880040c 	andi	r2,r17,16
 8001ee4:	1001df1e 	bne	r2,zero,8002664 <___svfprintf_internal_r+0x140c>
 8001ee8:	8880100c 	andi	r2,r17,64
 8001eec:	1001dd26 	beq	r2,zero,8002664 <___svfprintf_internal_r+0x140c>
 8001ef0:	dac02d17 	ldw	r11,180(sp)
 8001ef4:	0039883a 	mov	fp,zero
 8001ef8:	00800044 	movi	r2,1
 8001efc:	5cc0000b 	ldhu	r19,0(r11)
 8001f00:	5ac00104 	addi	r11,r11,4
 8001f04:	dac02d15 	stw	r11,180(sp)
 8001f08:	9807883a 	mov	r3,r19
 8001f0c:	003efe06 	br	8001b08 <__alt_data_end+0xfc001b08>
 8001f10:	d8c02915 	stw	r3,164(sp)
 8001f14:	8880080c 	andi	r2,r17,32
 8001f18:	103ef41e 	bne	r2,zero,8001aec <__alt_data_end+0xfc001aec>
 8001f1c:	8880040c 	andi	r2,r17,16
 8001f20:	1001c11e 	bne	r2,zero,8002628 <___svfprintf_internal_r+0x13d0>
 8001f24:	8880100c 	andi	r2,r17,64
 8001f28:	1001bf26 	beq	r2,zero,8002628 <___svfprintf_internal_r+0x13d0>
 8001f2c:	db002d17 	ldw	r12,180(sp)
 8001f30:	0039883a 	mov	fp,zero
 8001f34:	0005883a 	mov	r2,zero
 8001f38:	64c0000b 	ldhu	r19,0(r12)
 8001f3c:	63000104 	addi	r12,r12,4
 8001f40:	db002d15 	stw	r12,180(sp)
 8001f44:	9807883a 	mov	r3,r19
 8001f48:	003eef06 	br	8001b08 <__alt_data_end+0xfc001b08>
 8001f4c:	d8c02915 	stw	r3,164(sp)
 8001f50:	d9802785 	stb	r6,158(sp)
 8001f54:	803d8226 	beq	r16,zero,8001560 <__alt_data_end+0xfc001560>
 8001f58:	02c00044 	movi	r11,1
 8001f5c:	db001404 	addi	r12,sp,80
 8001f60:	dac02a15 	stw	r11,168(sp)
 8001f64:	dc001405 	stb	r16,80(sp)
 8001f68:	d8002785 	stb	zero,158(sp)
 8001f6c:	5825883a 	mov	r18,r11
 8001f70:	d8003215 	stw	zero,200(sp)
 8001f74:	d8003415 	stw	zero,208(sp)
 8001f78:	db003115 	stw	r12,196(sp)
 8001f7c:	0005883a 	mov	r2,zero
 8001f80:	003df506 	br	8001758 <__alt_data_end+0xfc001758>
 8001f84:	d8c02017 	ldw	r3,128(sp)
 8001f88:	003e3606 	br	8001864 <__alt_data_end+0xfc001864>
 8001f8c:	10803fcc 	andi	r2,r2,255
 8001f90:	00c00044 	movi	r3,1
 8001f94:	10fdca1e 	bne	r2,r3,80016c0 <__alt_data_end+0xfc0016c0>
 8001f98:	e000021e 	bne	fp,zero,8001fa4 <___svfprintf_internal_r+0xd4c>
 8001f9c:	00800244 	movi	r2,9
 8001fa0:	14c01f2e 	bgeu	r2,r19,8002020 <___svfprintf_internal_r+0xdc8>
 8001fa4:	dc002a15 	stw	r16,168(sp)
 8001fa8:	dc402b15 	stw	r17,172(sp)
 8001fac:	9821883a 	mov	r16,r19
 8001fb0:	e023883a 	mov	r17,fp
 8001fb4:	b025883a 	mov	r18,r22
 8001fb8:	4027883a 	mov	r19,r8
 8001fbc:	4839883a 	mov	fp,r9
 8001fc0:	8009883a 	mov	r4,r16
 8001fc4:	880b883a 	mov	r5,r17
 8001fc8:	01800284 	movi	r6,10
 8001fcc:	000f883a 	mov	r7,zero
 8001fd0:	800daf00 	call	800daf0 <__umoddi3>
 8001fd4:	10800c04 	addi	r2,r2,48
 8001fd8:	94bfffc4 	addi	r18,r18,-1
 8001fdc:	8009883a 	mov	r4,r16
 8001fe0:	880b883a 	mov	r5,r17
 8001fe4:	01800284 	movi	r6,10
 8001fe8:	000f883a 	mov	r7,zero
 8001fec:	90800005 	stb	r2,0(r18)
 8001ff0:	800d5300 	call	800d530 <__udivdi3>
 8001ff4:	1021883a 	mov	r16,r2
 8001ff8:	10c4b03a 	or	r2,r2,r3
 8001ffc:	1823883a 	mov	r17,r3
 8002000:	103fef1e 	bne	r2,zero,8001fc0 <__alt_data_end+0xfc001fc0>
 8002004:	dc803115 	stw	r18,196(sp)
 8002008:	dc002a17 	ldw	r16,168(sp)
 800200c:	9811883a 	mov	r8,r19
 8002010:	dc402b17 	ldw	r17,172(sp)
 8002014:	e013883a 	mov	r9,fp
 8002018:	b4a5c83a 	sub	r18,r22,r18
 800201c:	003dc206 	br	8001728 <__alt_data_end+0xfc001728>
 8002020:	9cc00c04 	addi	r19,r19,48
 8002024:	db001dc4 	addi	r12,sp,119
 8002028:	dcc01dc5 	stb	r19,119(sp)
 800202c:	dc803d17 	ldw	r18,244(sp)
 8002030:	db003115 	stw	r12,196(sp)
 8002034:	003dbc06 	br	8001728 <__alt_data_end+0xfc001728>
 8002038:	00801944 	movi	r2,101
 800203c:	14008d0e 	bge	r2,r16,8002274 <___svfprintf_internal_r+0x101c>
 8002040:	d9003717 	ldw	r4,220(sp)
 8002044:	d9403817 	ldw	r5,224(sp)
 8002048:	000d883a 	mov	r6,zero
 800204c:	000f883a 	mov	r7,zero
 8002050:	d8c03e15 	stw	r3,248(sp)
 8002054:	da004015 	stw	r8,256(sp)
 8002058:	800f3140 	call	800f314 <__eqdf2>
 800205c:	d8c03e17 	ldw	r3,248(sp)
 8002060:	da004017 	ldw	r8,256(sp)
 8002064:	1000fd1e 	bne	r2,zero,800245c <___svfprintf_internal_r+0x1204>
 8002068:	d8801f17 	ldw	r2,124(sp)
 800206c:	01020074 	movhi	r4,2049
 8002070:	210c3304 	addi	r4,r4,12492
 8002074:	18c00044 	addi	r3,r3,1
 8002078:	10800044 	addi	r2,r2,1
 800207c:	41000015 	stw	r4,0(r8)
 8002080:	01000044 	movi	r4,1
 8002084:	41000115 	stw	r4,4(r8)
 8002088:	d8c02015 	stw	r3,128(sp)
 800208c:	d8801f15 	stw	r2,124(sp)
 8002090:	010001c4 	movi	r4,7
 8002094:	20823316 	blt	r4,r2,8002964 <___svfprintf_internal_r+0x170c>
 8002098:	42000204 	addi	r8,r8,8
 800209c:	d8802617 	ldw	r2,152(sp)
 80020a0:	dac03317 	ldw	r11,204(sp)
 80020a4:	12c00216 	blt	r2,r11,80020b0 <___svfprintf_internal_r+0xe58>
 80020a8:	8880004c 	andi	r2,r17,1
 80020ac:	103e4c26 	beq	r2,zero,80019e0 <__alt_data_end+0xfc0019e0>
 80020b0:	db003917 	ldw	r12,228(sp)
 80020b4:	d8801f17 	ldw	r2,124(sp)
 80020b8:	dac03517 	ldw	r11,212(sp)
 80020bc:	1b07883a 	add	r3,r3,r12
 80020c0:	10800044 	addi	r2,r2,1
 80020c4:	42c00015 	stw	r11,0(r8)
 80020c8:	43000115 	stw	r12,4(r8)
 80020cc:	d8c02015 	stw	r3,128(sp)
 80020d0:	d8801f15 	stw	r2,124(sp)
 80020d4:	010001c4 	movi	r4,7
 80020d8:	20826f16 	blt	r4,r2,8002a98 <___svfprintf_internal_r+0x1840>
 80020dc:	42000204 	addi	r8,r8,8
 80020e0:	db003317 	ldw	r12,204(sp)
 80020e4:	643fffc4 	addi	r16,r12,-1
 80020e8:	043e3d0e 	bge	zero,r16,80019e0 <__alt_data_end+0xfc0019e0>
 80020ec:	04800404 	movi	r18,16
 80020f0:	d8801f17 	ldw	r2,124(sp)
 80020f4:	94009a0e 	bge	r18,r16,8002360 <___svfprintf_internal_r+0x1108>
 80020f8:	01420074 	movhi	r5,2049
 80020fc:	294c3384 	addi	r5,r5,12494
 8002100:	d9402b15 	stw	r5,172(sp)
 8002104:	054001c4 	movi	r21,7
 8002108:	dcc02f17 	ldw	r19,188(sp)
 800210c:	00000306 	br	800211c <___svfprintf_internal_r+0xec4>
 8002110:	42000204 	addi	r8,r8,8
 8002114:	843ffc04 	addi	r16,r16,-16
 8002118:	9400940e 	bge	r18,r16,800236c <___svfprintf_internal_r+0x1114>
 800211c:	18c00404 	addi	r3,r3,16
 8002120:	10800044 	addi	r2,r2,1
 8002124:	45000015 	stw	r20,0(r8)
 8002128:	44800115 	stw	r18,4(r8)
 800212c:	d8c02015 	stw	r3,128(sp)
 8002130:	d8801f15 	stw	r2,124(sp)
 8002134:	a8bff60e 	bge	r21,r2,8002110 <__alt_data_end+0xfc002110>
 8002138:	9809883a 	mov	r4,r19
 800213c:	b80b883a 	mov	r5,r23
 8002140:	b00d883a 	mov	r6,r22
 8002144:	80099940 	call	8009994 <__ssprint_r>
 8002148:	103d0b1e 	bne	r2,zero,8001578 <__alt_data_end+0xfc001578>
 800214c:	d8c02017 	ldw	r3,128(sp)
 8002150:	d8801f17 	ldw	r2,124(sp)
 8002154:	da000404 	addi	r8,sp,16
 8002158:	003fee06 	br	8002114 <__alt_data_end+0xfc002114>
 800215c:	dac02e17 	ldw	r11,184(sp)
 8002160:	db002a17 	ldw	r12,168(sp)
 8002164:	5b2bc83a 	sub	r21,r11,r12
 8002168:	057ddc0e 	bge	zero,r21,80018dc <__alt_data_end+0xfc0018dc>
 800216c:	07000404 	movi	fp,16
 8002170:	d8801f17 	ldw	r2,124(sp)
 8002174:	e5435d0e 	bge	fp,r21,8002eec <___svfprintf_internal_r+0x1c94>
 8002178:	01420074 	movhi	r5,2049
 800217c:	a809883a 	mov	r4,r21
 8002180:	294c3384 	addi	r5,r5,12494
 8002184:	dc002c15 	stw	r16,176(sp)
 8002188:	902b883a 	mov	r21,r18
 800218c:	d9402b15 	stw	r5,172(sp)
 8002190:	8825883a 	mov	r18,r17
 8002194:	04c001c4 	movi	r19,7
 8002198:	dc002f17 	ldw	r16,188(sp)
 800219c:	2023883a 	mov	r17,r4
 80021a0:	00000306 	br	80021b0 <___svfprintf_internal_r+0xf58>
 80021a4:	8c7ffc04 	addi	r17,r17,-16
 80021a8:	42000204 	addi	r8,r8,8
 80021ac:	e440110e 	bge	fp,r17,80021f4 <___svfprintf_internal_r+0xf9c>
 80021b0:	18c00404 	addi	r3,r3,16
 80021b4:	10800044 	addi	r2,r2,1
 80021b8:	45000015 	stw	r20,0(r8)
 80021bc:	47000115 	stw	fp,4(r8)
 80021c0:	d8c02015 	stw	r3,128(sp)
 80021c4:	d8801f15 	stw	r2,124(sp)
 80021c8:	98bff60e 	bge	r19,r2,80021a4 <__alt_data_end+0xfc0021a4>
 80021cc:	8009883a 	mov	r4,r16
 80021d0:	b80b883a 	mov	r5,r23
 80021d4:	b00d883a 	mov	r6,r22
 80021d8:	80099940 	call	8009994 <__ssprint_r>
 80021dc:	103ce61e 	bne	r2,zero,8001578 <__alt_data_end+0xfc001578>
 80021e0:	8c7ffc04 	addi	r17,r17,-16
 80021e4:	d8c02017 	ldw	r3,128(sp)
 80021e8:	d8801f17 	ldw	r2,124(sp)
 80021ec:	da000404 	addi	r8,sp,16
 80021f0:	e47fef16 	blt	fp,r17,80021b0 <__alt_data_end+0xfc0021b0>
 80021f4:	dc002c17 	ldw	r16,176(sp)
 80021f8:	8809883a 	mov	r4,r17
 80021fc:	9023883a 	mov	r17,r18
 8002200:	a825883a 	mov	r18,r21
 8002204:	202b883a 	mov	r21,r4
 8002208:	dac02b17 	ldw	r11,172(sp)
 800220c:	1d47883a 	add	r3,r3,r21
 8002210:	10800044 	addi	r2,r2,1
 8002214:	42c00015 	stw	r11,0(r8)
 8002218:	45400115 	stw	r21,4(r8)
 800221c:	d8c02015 	stw	r3,128(sp)
 8002220:	d8801f15 	stw	r2,124(sp)
 8002224:	010001c4 	movi	r4,7
 8002228:	20818016 	blt	r4,r2,800282c <___svfprintf_internal_r+0x15d4>
 800222c:	42000204 	addi	r8,r8,8
 8002230:	003daa06 	br	80018dc <__alt_data_end+0xfc0018dc>
 8002234:	d9403b17 	ldw	r5,236(sp)
 8002238:	b007883a 	mov	r3,r22
 800223c:	988003cc 	andi	r2,r19,15
 8002240:	e008973a 	slli	r4,fp,28
 8002244:	2885883a 	add	r2,r5,r2
 8002248:	9826d13a 	srli	r19,r19,4
 800224c:	10800003 	ldbu	r2,0(r2)
 8002250:	e038d13a 	srli	fp,fp,4
 8002254:	18ffffc4 	addi	r3,r3,-1
 8002258:	24e6b03a 	or	r19,r4,r19
 800225c:	18800005 	stb	r2,0(r3)
 8002260:	9f04b03a 	or	r2,r19,fp
 8002264:	103ff51e 	bne	r2,zero,800223c <__alt_data_end+0xfc00223c>
 8002268:	d8c03115 	stw	r3,196(sp)
 800226c:	b0e5c83a 	sub	r18,r22,r3
 8002270:	003d2d06 	br	8001728 <__alt_data_end+0xfc001728>
 8002274:	db003317 	ldw	r12,204(sp)
 8002278:	00800044 	movi	r2,1
 800227c:	18c00044 	addi	r3,r3,1
 8002280:	13014b0e 	bge	r2,r12,80027b0 <___svfprintf_internal_r+0x1558>
 8002284:	dc001f17 	ldw	r16,124(sp)
 8002288:	dac03117 	ldw	r11,196(sp)
 800228c:	00800044 	movi	r2,1
 8002290:	84000044 	addi	r16,r16,1
 8002294:	40800115 	stw	r2,4(r8)
 8002298:	42c00015 	stw	r11,0(r8)
 800229c:	d8c02015 	stw	r3,128(sp)
 80022a0:	dc001f15 	stw	r16,124(sp)
 80022a4:	008001c4 	movi	r2,7
 80022a8:	14014e16 	blt	r2,r16,80027e4 <___svfprintf_internal_r+0x158c>
 80022ac:	42000204 	addi	r8,r8,8
 80022b0:	db003917 	ldw	r12,228(sp)
 80022b4:	dac03517 	ldw	r11,212(sp)
 80022b8:	84000044 	addi	r16,r16,1
 80022bc:	1b07883a 	add	r3,r3,r12
 80022c0:	42c00015 	stw	r11,0(r8)
 80022c4:	43000115 	stw	r12,4(r8)
 80022c8:	d8c02015 	stw	r3,128(sp)
 80022cc:	dc001f15 	stw	r16,124(sp)
 80022d0:	008001c4 	movi	r2,7
 80022d4:	14014c16 	blt	r2,r16,8002808 <___svfprintf_internal_r+0x15b0>
 80022d8:	44800204 	addi	r18,r8,8
 80022dc:	d9003717 	ldw	r4,220(sp)
 80022e0:	d9403817 	ldw	r5,224(sp)
 80022e4:	000d883a 	mov	r6,zero
 80022e8:	000f883a 	mov	r7,zero
 80022ec:	d8c03e15 	stw	r3,248(sp)
 80022f0:	800f3140 	call	800f314 <__eqdf2>
 80022f4:	d8c03e17 	ldw	r3,248(sp)
 80022f8:	db003317 	ldw	r12,204(sp)
 80022fc:	10009526 	beq	r2,zero,8002554 <___svfprintf_internal_r+0x12fc>
 8002300:	dac03117 	ldw	r11,196(sp)
 8002304:	60bfffc4 	addi	r2,r12,-1
 8002308:	1887883a 	add	r3,r3,r2
 800230c:	59000044 	addi	r4,r11,1
 8002310:	84000044 	addi	r16,r16,1
 8002314:	90800115 	stw	r2,4(r18)
 8002318:	91000015 	stw	r4,0(r18)
 800231c:	d8c02015 	stw	r3,128(sp)
 8002320:	dc001f15 	stw	r16,124(sp)
 8002324:	008001c4 	movi	r2,7
 8002328:	1400b316 	blt	r2,r16,80025f8 <___svfprintf_internal_r+0x13a0>
 800232c:	94800204 	addi	r18,r18,8
 8002330:	dac03a17 	ldw	r11,232(sp)
 8002334:	dd4022c4 	addi	r21,sp,139
 8002338:	84000044 	addi	r16,r16,1
 800233c:	58c7883a 	add	r3,r11,r3
 8002340:	95400015 	stw	r21,0(r18)
 8002344:	92c00115 	stw	r11,4(r18)
 8002348:	d8c02015 	stw	r3,128(sp)
 800234c:	dc001f15 	stw	r16,124(sp)
 8002350:	008001c4 	movi	r2,7
 8002354:	14000e16 	blt	r2,r16,8002390 <___svfprintf_internal_r+0x1138>
 8002358:	92000204 	addi	r8,r18,8
 800235c:	003da006 	br	80019e0 <__alt_data_end+0xfc0019e0>
 8002360:	01020074 	movhi	r4,2049
 8002364:	210c3384 	addi	r4,r4,12494
 8002368:	d9002b15 	stw	r4,172(sp)
 800236c:	dac02b17 	ldw	r11,172(sp)
 8002370:	1c07883a 	add	r3,r3,r16
 8002374:	44000115 	stw	r16,4(r8)
 8002378:	42c00015 	stw	r11,0(r8)
 800237c:	10800044 	addi	r2,r2,1
 8002380:	d8c02015 	stw	r3,128(sp)
 8002384:	d8801f15 	stw	r2,124(sp)
 8002388:	010001c4 	movi	r4,7
 800238c:	20bd930e 	bge	r4,r2,80019dc <__alt_data_end+0xfc0019dc>
 8002390:	d9002f17 	ldw	r4,188(sp)
 8002394:	b80b883a 	mov	r5,r23
 8002398:	b00d883a 	mov	r6,r22
 800239c:	80099940 	call	8009994 <__ssprint_r>
 80023a0:	103c751e 	bne	r2,zero,8001578 <__alt_data_end+0xfc001578>
 80023a4:	d8c02017 	ldw	r3,128(sp)
 80023a8:	da000404 	addi	r8,sp,16
 80023ac:	003d8c06 	br	80019e0 <__alt_data_end+0xfc0019e0>
 80023b0:	d9002f17 	ldw	r4,188(sp)
 80023b4:	b80b883a 	mov	r5,r23
 80023b8:	b00d883a 	mov	r6,r22
 80023bc:	80099940 	call	8009994 <__ssprint_r>
 80023c0:	103dc326 	beq	r2,zero,8001ad0 <__alt_data_end+0xfc001ad0>
 80023c4:	003c6c06 	br	8001578 <__alt_data_end+0xfc001578>
 80023c8:	10803fcc 	andi	r2,r2,255
 80023cc:	1000201e 	bne	r2,zero,8002450 <___svfprintf_internal_r+0x11f8>
 80023d0:	8880004c 	andi	r2,r17,1
 80023d4:	10001e26 	beq	r2,zero,8002450 <___svfprintf_internal_r+0x11f8>
 80023d8:	00800c04 	movi	r2,48
 80023dc:	d8c01dc4 	addi	r3,sp,119
 80023e0:	d8801dc5 	stb	r2,119(sp)
 80023e4:	dc803d17 	ldw	r18,244(sp)
 80023e8:	d8c03115 	stw	r3,196(sp)
 80023ec:	003cce06 	br	8001728 <__alt_data_end+0xfc001728>
 80023f0:	d9002f17 	ldw	r4,188(sp)
 80023f4:	b80b883a 	mov	r5,r23
 80023f8:	b00d883a 	mov	r6,r22
 80023fc:	80099940 	call	8009994 <__ssprint_r>
 8002400:	103c5d1e 	bne	r2,zero,8001578 <__alt_data_end+0xfc001578>
 8002404:	d8c02017 	ldw	r3,128(sp)
 8002408:	da000404 	addi	r8,sp,16
 800240c:	003d6706 	br	80019ac <__alt_data_end+0xfc0019ac>
 8002410:	d9002f17 	ldw	r4,188(sp)
 8002414:	b80b883a 	mov	r5,r23
 8002418:	b00d883a 	mov	r6,r22
 800241c:	80099940 	call	8009994 <__ssprint_r>
 8002420:	103c551e 	bne	r2,zero,8001578 <__alt_data_end+0xfc001578>
 8002424:	d8c02017 	ldw	r3,128(sp)
 8002428:	da000404 	addi	r8,sp,16
 800242c:	003d1a06 	br	8001898 <__alt_data_end+0xfc001898>
 8002430:	d9002f17 	ldw	r4,188(sp)
 8002434:	b80b883a 	mov	r5,r23
 8002438:	b00d883a 	mov	r6,r22
 800243c:	80099940 	call	8009994 <__ssprint_r>
 8002440:	103c4d1e 	bne	r2,zero,8001578 <__alt_data_end+0xfc001578>
 8002444:	d8c02017 	ldw	r3,128(sp)
 8002448:	da000404 	addi	r8,sp,16
 800244c:	003d2006 	br	80018d0 <__alt_data_end+0xfc0018d0>
 8002450:	0025883a 	mov	r18,zero
 8002454:	dd803115 	stw	r22,196(sp)
 8002458:	003cb306 	br	8001728 <__alt_data_end+0xfc001728>
 800245c:	dc002617 	ldw	r16,152(sp)
 8002460:	0401480e 	bge	zero,r16,8002984 <___svfprintf_internal_r+0x172c>
 8002464:	db003117 	ldw	r12,196(sp)
 8002468:	dac03317 	ldw	r11,204(sp)
 800246c:	62e1883a 	add	r16,r12,r11
 8002470:	db003417 	ldw	r12,208(sp)
 8002474:	5825883a 	mov	r18,r11
 8002478:	62c0010e 	bge	r12,r11,8002480 <___svfprintf_internal_r+0x1228>
 800247c:	6025883a 	mov	r18,r12
 8002480:	04800b0e 	bge	zero,r18,80024b0 <___svfprintf_internal_r+0x1258>
 8002484:	d8801f17 	ldw	r2,124(sp)
 8002488:	dac03117 	ldw	r11,196(sp)
 800248c:	1c87883a 	add	r3,r3,r18
 8002490:	10800044 	addi	r2,r2,1
 8002494:	42c00015 	stw	r11,0(r8)
 8002498:	44800115 	stw	r18,4(r8)
 800249c:	d8c02015 	stw	r3,128(sp)
 80024a0:	d8801f15 	stw	r2,124(sp)
 80024a4:	010001c4 	movi	r4,7
 80024a8:	20823f16 	blt	r4,r2,8002da8 <___svfprintf_internal_r+0x1b50>
 80024ac:	42000204 	addi	r8,r8,8
 80024b0:	90023b16 	blt	r18,zero,8002da0 <___svfprintf_internal_r+0x1b48>
 80024b4:	db003417 	ldw	r12,208(sp)
 80024b8:	64a5c83a 	sub	r18,r12,r18
 80024bc:	0480780e 	bge	zero,r18,80026a0 <___svfprintf_internal_r+0x1448>
 80024c0:	05400404 	movi	r21,16
 80024c4:	d8801f17 	ldw	r2,124(sp)
 80024c8:	ac81140e 	bge	r21,r18,800291c <___svfprintf_internal_r+0x16c4>
 80024cc:	01420074 	movhi	r5,2049
 80024d0:	294c3384 	addi	r5,r5,12494
 80024d4:	d9402b15 	stw	r5,172(sp)
 80024d8:	070001c4 	movi	fp,7
 80024dc:	dcc02f17 	ldw	r19,188(sp)
 80024e0:	00000306 	br	80024f0 <___svfprintf_internal_r+0x1298>
 80024e4:	42000204 	addi	r8,r8,8
 80024e8:	94bffc04 	addi	r18,r18,-16
 80024ec:	ac810e0e 	bge	r21,r18,8002928 <___svfprintf_internal_r+0x16d0>
 80024f0:	18c00404 	addi	r3,r3,16
 80024f4:	10800044 	addi	r2,r2,1
 80024f8:	45000015 	stw	r20,0(r8)
 80024fc:	45400115 	stw	r21,4(r8)
 8002500:	d8c02015 	stw	r3,128(sp)
 8002504:	d8801f15 	stw	r2,124(sp)
 8002508:	e0bff60e 	bge	fp,r2,80024e4 <__alt_data_end+0xfc0024e4>
 800250c:	9809883a 	mov	r4,r19
 8002510:	b80b883a 	mov	r5,r23
 8002514:	b00d883a 	mov	r6,r22
 8002518:	80099940 	call	8009994 <__ssprint_r>
 800251c:	103c161e 	bne	r2,zero,8001578 <__alt_data_end+0xfc001578>
 8002520:	d8c02017 	ldw	r3,128(sp)
 8002524:	d8801f17 	ldw	r2,124(sp)
 8002528:	da000404 	addi	r8,sp,16
 800252c:	003fee06 	br	80024e8 <__alt_data_end+0xfc0024e8>
 8002530:	d9002f17 	ldw	r4,188(sp)
 8002534:	b80b883a 	mov	r5,r23
 8002538:	b00d883a 	mov	r6,r22
 800253c:	80099940 	call	8009994 <__ssprint_r>
 8002540:	103c0d1e 	bne	r2,zero,8001578 <__alt_data_end+0xfc001578>
 8002544:	d8c02017 	ldw	r3,128(sp)
 8002548:	d8802787 	ldb	r2,158(sp)
 800254c:	da000404 	addi	r8,sp,16
 8002550:	003cc406 	br	8001864 <__alt_data_end+0xfc001864>
 8002554:	657fffc4 	addi	r21,r12,-1
 8002558:	057f750e 	bge	zero,r21,8002330 <__alt_data_end+0xfc002330>
 800255c:	07000404 	movi	fp,16
 8002560:	e542ef0e 	bge	fp,r21,8003120 <___svfprintf_internal_r+0x1ec8>
 8002564:	01020074 	movhi	r4,2049
 8002568:	210c3384 	addi	r4,r4,12494
 800256c:	d9002b15 	stw	r4,172(sp)
 8002570:	01c001c4 	movi	r7,7
 8002574:	dcc02f17 	ldw	r19,188(sp)
 8002578:	00000306 	br	8002588 <___svfprintf_internal_r+0x1330>
 800257c:	ad7ffc04 	addi	r21,r21,-16
 8002580:	94800204 	addi	r18,r18,8
 8002584:	e540130e 	bge	fp,r21,80025d4 <___svfprintf_internal_r+0x137c>
 8002588:	18c00404 	addi	r3,r3,16
 800258c:	84000044 	addi	r16,r16,1
 8002590:	95000015 	stw	r20,0(r18)
 8002594:	97000115 	stw	fp,4(r18)
 8002598:	d8c02015 	stw	r3,128(sp)
 800259c:	dc001f15 	stw	r16,124(sp)
 80025a0:	3c3ff60e 	bge	r7,r16,800257c <__alt_data_end+0xfc00257c>
 80025a4:	9809883a 	mov	r4,r19
 80025a8:	b80b883a 	mov	r5,r23
 80025ac:	b00d883a 	mov	r6,r22
 80025b0:	d9c03e15 	stw	r7,248(sp)
 80025b4:	80099940 	call	8009994 <__ssprint_r>
 80025b8:	d9c03e17 	ldw	r7,248(sp)
 80025bc:	103bee1e 	bne	r2,zero,8001578 <__alt_data_end+0xfc001578>
 80025c0:	ad7ffc04 	addi	r21,r21,-16
 80025c4:	d8c02017 	ldw	r3,128(sp)
 80025c8:	dc001f17 	ldw	r16,124(sp)
 80025cc:	dc800404 	addi	r18,sp,16
 80025d0:	e57fed16 	blt	fp,r21,8002588 <__alt_data_end+0xfc002588>
 80025d4:	dac02b17 	ldw	r11,172(sp)
 80025d8:	1d47883a 	add	r3,r3,r21
 80025dc:	84000044 	addi	r16,r16,1
 80025e0:	92c00015 	stw	r11,0(r18)
 80025e4:	95400115 	stw	r21,4(r18)
 80025e8:	d8c02015 	stw	r3,128(sp)
 80025ec:	dc001f15 	stw	r16,124(sp)
 80025f0:	008001c4 	movi	r2,7
 80025f4:	143f4d0e 	bge	r2,r16,800232c <__alt_data_end+0xfc00232c>
 80025f8:	d9002f17 	ldw	r4,188(sp)
 80025fc:	b80b883a 	mov	r5,r23
 8002600:	b00d883a 	mov	r6,r22
 8002604:	80099940 	call	8009994 <__ssprint_r>
 8002608:	103bdb1e 	bne	r2,zero,8001578 <__alt_data_end+0xfc001578>
 800260c:	d8c02017 	ldw	r3,128(sp)
 8002610:	dc001f17 	ldw	r16,124(sp)
 8002614:	dc800404 	addi	r18,sp,16
 8002618:	003f4506 	br	8002330 <__alt_data_end+0xfc002330>
 800261c:	00800084 	movi	r2,2
 8002620:	9f06b03a 	or	r3,r19,fp
 8002624:	003d3806 	br	8001b08 <__alt_data_end+0xfc001b08>
 8002628:	dac02d17 	ldw	r11,180(sp)
 800262c:	0039883a 	mov	fp,zero
 8002630:	0005883a 	mov	r2,zero
 8002634:	5cc00017 	ldw	r19,0(r11)
 8002638:	5ac00104 	addi	r11,r11,4
 800263c:	dac02d15 	stw	r11,180(sp)
 8002640:	9807883a 	mov	r3,r19
 8002644:	003d3006 	br	8001b08 <__alt_data_end+0xfc001b08>
 8002648:	1cc00017 	ldw	r19,0(r3)
 800264c:	dac02d17 	ldw	r11,180(sp)
 8002650:	9839d7fa 	srai	fp,r19,31
 8002654:	5ac00104 	addi	r11,r11,4
 8002658:	dac02d15 	stw	r11,180(sp)
 800265c:	e005883a 	mov	r2,fp
 8002660:	003c0a06 	br	800168c <__alt_data_end+0xfc00168c>
 8002664:	db002d17 	ldw	r12,180(sp)
 8002668:	0039883a 	mov	fp,zero
 800266c:	00800044 	movi	r2,1
 8002670:	64c00017 	ldw	r19,0(r12)
 8002674:	63000104 	addi	r12,r12,4
 8002678:	db002d15 	stw	r12,180(sp)
 800267c:	9807883a 	mov	r3,r19
 8002680:	003d2106 	br	8001b08 <__alt_data_end+0xfc001b08>
 8002684:	d9002f17 	ldw	r4,188(sp)
 8002688:	b80b883a 	mov	r5,r23
 800268c:	b00d883a 	mov	r6,r22
 8002690:	80099940 	call	8009994 <__ssprint_r>
 8002694:	103bb81e 	bne	r2,zero,8001578 <__alt_data_end+0xfc001578>
 8002698:	d8c02017 	ldw	r3,128(sp)
 800269c:	da000404 	addi	r8,sp,16
 80026a0:	db003117 	ldw	r12,196(sp)
 80026a4:	dac03417 	ldw	r11,208(sp)
 80026a8:	d8802617 	ldw	r2,152(sp)
 80026ac:	62e5883a 	add	r18,r12,r11
 80026b0:	db003317 	ldw	r12,204(sp)
 80026b4:	13000216 	blt	r2,r12,80026c0 <___svfprintf_internal_r+0x1468>
 80026b8:	8900004c 	andi	r4,r17,1
 80026bc:	20000c26 	beq	r4,zero,80026f0 <___svfprintf_internal_r+0x1498>
 80026c0:	dac03917 	ldw	r11,228(sp)
 80026c4:	d9001f17 	ldw	r4,124(sp)
 80026c8:	db003517 	ldw	r12,212(sp)
 80026cc:	1ac7883a 	add	r3,r3,r11
 80026d0:	21000044 	addi	r4,r4,1
 80026d4:	43000015 	stw	r12,0(r8)
 80026d8:	42c00115 	stw	r11,4(r8)
 80026dc:	d8c02015 	stw	r3,128(sp)
 80026e0:	d9001f15 	stw	r4,124(sp)
 80026e4:	014001c4 	movi	r5,7
 80026e8:	2901b716 	blt	r5,r4,8002dc8 <___svfprintf_internal_r+0x1b70>
 80026ec:	42000204 	addi	r8,r8,8
 80026f0:	dac03317 	ldw	r11,204(sp)
 80026f4:	8489c83a 	sub	r4,r16,r18
 80026f8:	5885c83a 	sub	r2,r11,r2
 80026fc:	1021883a 	mov	r16,r2
 8002700:	2080010e 	bge	r4,r2,8002708 <___svfprintf_internal_r+0x14b0>
 8002704:	2021883a 	mov	r16,r4
 8002708:	04000a0e 	bge	zero,r16,8002734 <___svfprintf_internal_r+0x14dc>
 800270c:	d9001f17 	ldw	r4,124(sp)
 8002710:	1c07883a 	add	r3,r3,r16
 8002714:	44800015 	stw	r18,0(r8)
 8002718:	21000044 	addi	r4,r4,1
 800271c:	44000115 	stw	r16,4(r8)
 8002720:	d8c02015 	stw	r3,128(sp)
 8002724:	d9001f15 	stw	r4,124(sp)
 8002728:	014001c4 	movi	r5,7
 800272c:	2901bf16 	blt	r5,r4,8002e2c <___svfprintf_internal_r+0x1bd4>
 8002730:	42000204 	addi	r8,r8,8
 8002734:	8001bb16 	blt	r16,zero,8002e24 <___svfprintf_internal_r+0x1bcc>
 8002738:	1421c83a 	sub	r16,r2,r16
 800273c:	043ca80e 	bge	zero,r16,80019e0 <__alt_data_end+0xfc0019e0>
 8002740:	04800404 	movi	r18,16
 8002744:	d8801f17 	ldw	r2,124(sp)
 8002748:	943f050e 	bge	r18,r16,8002360 <__alt_data_end+0xfc002360>
 800274c:	01420074 	movhi	r5,2049
 8002750:	294c3384 	addi	r5,r5,12494
 8002754:	d9402b15 	stw	r5,172(sp)
 8002758:	054001c4 	movi	r21,7
 800275c:	dcc02f17 	ldw	r19,188(sp)
 8002760:	00000306 	br	8002770 <___svfprintf_internal_r+0x1518>
 8002764:	42000204 	addi	r8,r8,8
 8002768:	843ffc04 	addi	r16,r16,-16
 800276c:	943eff0e 	bge	r18,r16,800236c <__alt_data_end+0xfc00236c>
 8002770:	18c00404 	addi	r3,r3,16
 8002774:	10800044 	addi	r2,r2,1
 8002778:	45000015 	stw	r20,0(r8)
 800277c:	44800115 	stw	r18,4(r8)
 8002780:	d8c02015 	stw	r3,128(sp)
 8002784:	d8801f15 	stw	r2,124(sp)
 8002788:	a8bff60e 	bge	r21,r2,8002764 <__alt_data_end+0xfc002764>
 800278c:	9809883a 	mov	r4,r19
 8002790:	b80b883a 	mov	r5,r23
 8002794:	b00d883a 	mov	r6,r22
 8002798:	80099940 	call	8009994 <__ssprint_r>
 800279c:	103b761e 	bne	r2,zero,8001578 <__alt_data_end+0xfc001578>
 80027a0:	d8c02017 	ldw	r3,128(sp)
 80027a4:	d8801f17 	ldw	r2,124(sp)
 80027a8:	da000404 	addi	r8,sp,16
 80027ac:	003fee06 	br	8002768 <__alt_data_end+0xfc002768>
 80027b0:	8888703a 	and	r4,r17,r2
 80027b4:	203eb31e 	bne	r4,zero,8002284 <__alt_data_end+0xfc002284>
 80027b8:	dc001f17 	ldw	r16,124(sp)
 80027bc:	db003117 	ldw	r12,196(sp)
 80027c0:	40800115 	stw	r2,4(r8)
 80027c4:	84000044 	addi	r16,r16,1
 80027c8:	43000015 	stw	r12,0(r8)
 80027cc:	d8c02015 	stw	r3,128(sp)
 80027d0:	dc001f15 	stw	r16,124(sp)
 80027d4:	008001c4 	movi	r2,7
 80027d8:	143f8716 	blt	r2,r16,80025f8 <__alt_data_end+0xfc0025f8>
 80027dc:	44800204 	addi	r18,r8,8
 80027e0:	003ed306 	br	8002330 <__alt_data_end+0xfc002330>
 80027e4:	d9002f17 	ldw	r4,188(sp)
 80027e8:	b80b883a 	mov	r5,r23
 80027ec:	b00d883a 	mov	r6,r22
 80027f0:	80099940 	call	8009994 <__ssprint_r>
 80027f4:	103b601e 	bne	r2,zero,8001578 <__alt_data_end+0xfc001578>
 80027f8:	d8c02017 	ldw	r3,128(sp)
 80027fc:	dc001f17 	ldw	r16,124(sp)
 8002800:	da000404 	addi	r8,sp,16
 8002804:	003eaa06 	br	80022b0 <__alt_data_end+0xfc0022b0>
 8002808:	d9002f17 	ldw	r4,188(sp)
 800280c:	b80b883a 	mov	r5,r23
 8002810:	b00d883a 	mov	r6,r22
 8002814:	80099940 	call	8009994 <__ssprint_r>
 8002818:	103b571e 	bne	r2,zero,8001578 <__alt_data_end+0xfc001578>
 800281c:	d8c02017 	ldw	r3,128(sp)
 8002820:	dc001f17 	ldw	r16,124(sp)
 8002824:	dc800404 	addi	r18,sp,16
 8002828:	003eac06 	br	80022dc <__alt_data_end+0xfc0022dc>
 800282c:	d9002f17 	ldw	r4,188(sp)
 8002830:	b80b883a 	mov	r5,r23
 8002834:	b00d883a 	mov	r6,r22
 8002838:	80099940 	call	8009994 <__ssprint_r>
 800283c:	103b4e1e 	bne	r2,zero,8001578 <__alt_data_end+0xfc001578>
 8002840:	d8c02017 	ldw	r3,128(sp)
 8002844:	da000404 	addi	r8,sp,16
 8002848:	003c2406 	br	80018dc <__alt_data_end+0xfc0018dc>
 800284c:	da004015 	stw	r8,256(sp)
 8002850:	da403f15 	stw	r9,252(sp)
 8002854:	80096540 	call	8009654 <__fpclassifyd>
 8002858:	da004017 	ldw	r8,256(sp)
 800285c:	da403f17 	ldw	r9,252(sp)
 8002860:	1000951e 	bne	r2,zero,8002ab8 <___svfprintf_internal_r+0x1860>
 8002864:	008011c4 	movi	r2,71
 8002868:	1400fb16 	blt	r2,r16,8002c58 <___svfprintf_internal_r+0x1a00>
 800286c:	03020074 	movhi	r12,2049
 8002870:	630c2504 	addi	r12,r12,12436
 8002874:	db003115 	stw	r12,196(sp)
 8002878:	00c000c4 	movi	r3,3
 800287c:	00bfdfc4 	movi	r2,-129
 8002880:	d8c02a15 	stw	r3,168(sp)
 8002884:	88a2703a 	and	r17,r17,r2
 8002888:	dd402783 	ldbu	r21,158(sp)
 800288c:	dcc02d15 	stw	r19,180(sp)
 8002890:	1825883a 	mov	r18,r3
 8002894:	d8003215 	stw	zero,200(sp)
 8002898:	d8003415 	stw	zero,208(sp)
 800289c:	003ba706 	br	800173c <__alt_data_end+0xfc00173c>
 80028a0:	8880040c 	andi	r2,r17,16
 80028a4:	1000091e 	bne	r2,zero,80028cc <___svfprintf_internal_r+0x1674>
 80028a8:	8c40100c 	andi	r17,r17,64
 80028ac:	88000726 	beq	r17,zero,80028cc <___svfprintf_internal_r+0x1674>
 80028b0:	db002d17 	ldw	r12,180(sp)
 80028b4:	dac03017 	ldw	r11,192(sp)
 80028b8:	60800017 	ldw	r2,0(r12)
 80028bc:	63000104 	addi	r12,r12,4
 80028c0:	db002d15 	stw	r12,180(sp)
 80028c4:	12c0000d 	sth	r11,0(r2)
 80028c8:	003a8f06 	br	8001308 <__alt_data_end+0xfc001308>
 80028cc:	db002d17 	ldw	r12,180(sp)
 80028d0:	dac03017 	ldw	r11,192(sp)
 80028d4:	60800017 	ldw	r2,0(r12)
 80028d8:	63000104 	addi	r12,r12,4
 80028dc:	db002d15 	stw	r12,180(sp)
 80028e0:	12c00015 	stw	r11,0(r2)
 80028e4:	003a8806 	br	8001308 <__alt_data_end+0xfc001308>
 80028e8:	88c0100c 	andi	r3,r17,64
 80028ec:	1800e926 	beq	r3,zero,8002c94 <___svfprintf_internal_r+0x1a3c>
 80028f0:	dac02d17 	ldw	r11,180(sp)
 80028f4:	14c0000b 	ldhu	r19,0(r2)
 80028f8:	0039883a 	mov	fp,zero
 80028fc:	5ac00104 	addi	r11,r11,4
 8002900:	dac02d15 	stw	r11,180(sp)
 8002904:	003d1406 	br	8001d58 <__alt_data_end+0xfc001d58>
 8002908:	1c000007 	ldb	r16,0(r3)
 800290c:	1805883a 	mov	r2,r3
 8002910:	003aa706 	br	80013b0 <__alt_data_end+0xfc0013b0>
 8002914:	00800084 	movi	r2,2
 8002918:	003c7b06 	br	8001b08 <__alt_data_end+0xfc001b08>
 800291c:	01020074 	movhi	r4,2049
 8002920:	210c3384 	addi	r4,r4,12494
 8002924:	d9002b15 	stw	r4,172(sp)
 8002928:	dac02b17 	ldw	r11,172(sp)
 800292c:	1c87883a 	add	r3,r3,r18
 8002930:	10800044 	addi	r2,r2,1
 8002934:	42c00015 	stw	r11,0(r8)
 8002938:	44800115 	stw	r18,4(r8)
 800293c:	d8c02015 	stw	r3,128(sp)
 8002940:	d8801f15 	stw	r2,124(sp)
 8002944:	010001c4 	movi	r4,7
 8002948:	20bf4e16 	blt	r4,r2,8002684 <__alt_data_end+0xfc002684>
 800294c:	42000204 	addi	r8,r8,8
 8002950:	003f5306 	br	80026a0 <__alt_data_end+0xfc0026a0>
 8002954:	01020074 	movhi	r4,2049
 8002958:	210c3384 	addi	r4,r4,12494
 800295c:	d9002b15 	stw	r4,172(sp)
 8002960:	003c0806 	br	8001984 <__alt_data_end+0xfc001984>
 8002964:	d9002f17 	ldw	r4,188(sp)
 8002968:	b80b883a 	mov	r5,r23
 800296c:	b00d883a 	mov	r6,r22
 8002970:	80099940 	call	8009994 <__ssprint_r>
 8002974:	103b001e 	bne	r2,zero,8001578 <__alt_data_end+0xfc001578>
 8002978:	d8c02017 	ldw	r3,128(sp)
 800297c:	da000404 	addi	r8,sp,16
 8002980:	003dc606 	br	800209c <__alt_data_end+0xfc00209c>
 8002984:	d8801f17 	ldw	r2,124(sp)
 8002988:	03020074 	movhi	r12,2049
 800298c:	01000044 	movi	r4,1
 8002990:	18c00044 	addi	r3,r3,1
 8002994:	10800044 	addi	r2,r2,1
 8002998:	630c3304 	addi	r12,r12,12492
 800299c:	41000115 	stw	r4,4(r8)
 80029a0:	43000015 	stw	r12,0(r8)
 80029a4:	d8c02015 	stw	r3,128(sp)
 80029a8:	d8801f15 	stw	r2,124(sp)
 80029ac:	010001c4 	movi	r4,7
 80029b0:	2080ad16 	blt	r4,r2,8002c68 <___svfprintf_internal_r+0x1a10>
 80029b4:	42000204 	addi	r8,r8,8
 80029b8:	8000041e 	bne	r16,zero,80029cc <___svfprintf_internal_r+0x1774>
 80029bc:	dac03317 	ldw	r11,204(sp)
 80029c0:	5800021e 	bne	r11,zero,80029cc <___svfprintf_internal_r+0x1774>
 80029c4:	8880004c 	andi	r2,r17,1
 80029c8:	103c0526 	beq	r2,zero,80019e0 <__alt_data_end+0xfc0019e0>
 80029cc:	db003917 	ldw	r12,228(sp)
 80029d0:	d8801f17 	ldw	r2,124(sp)
 80029d4:	dac03517 	ldw	r11,212(sp)
 80029d8:	1b07883a 	add	r3,r3,r12
 80029dc:	10800044 	addi	r2,r2,1
 80029e0:	42c00015 	stw	r11,0(r8)
 80029e4:	43000115 	stw	r12,4(r8)
 80029e8:	d8c02015 	stw	r3,128(sp)
 80029ec:	d8801f15 	stw	r2,124(sp)
 80029f0:	010001c4 	movi	r4,7
 80029f4:	20818816 	blt	r4,r2,8003018 <___svfprintf_internal_r+0x1dc0>
 80029f8:	42000204 	addi	r8,r8,8
 80029fc:	0421c83a 	sub	r16,zero,r16
 8002a00:	0400bc0e 	bge	zero,r16,8002cf4 <___svfprintf_internal_r+0x1a9c>
 8002a04:	04800404 	movi	r18,16
 8002a08:	9400f80e 	bge	r18,r16,8002dec <___svfprintf_internal_r+0x1b94>
 8002a0c:	01020074 	movhi	r4,2049
 8002a10:	210c3384 	addi	r4,r4,12494
 8002a14:	d9002b15 	stw	r4,172(sp)
 8002a18:	054001c4 	movi	r21,7
 8002a1c:	dcc02f17 	ldw	r19,188(sp)
 8002a20:	00000306 	br	8002a30 <___svfprintf_internal_r+0x17d8>
 8002a24:	42000204 	addi	r8,r8,8
 8002a28:	843ffc04 	addi	r16,r16,-16
 8002a2c:	9400f20e 	bge	r18,r16,8002df8 <___svfprintf_internal_r+0x1ba0>
 8002a30:	18c00404 	addi	r3,r3,16
 8002a34:	10800044 	addi	r2,r2,1
 8002a38:	45000015 	stw	r20,0(r8)
 8002a3c:	44800115 	stw	r18,4(r8)
 8002a40:	d8c02015 	stw	r3,128(sp)
 8002a44:	d8801f15 	stw	r2,124(sp)
 8002a48:	a8bff60e 	bge	r21,r2,8002a24 <__alt_data_end+0xfc002a24>
 8002a4c:	9809883a 	mov	r4,r19
 8002a50:	b80b883a 	mov	r5,r23
 8002a54:	b00d883a 	mov	r6,r22
 8002a58:	80099940 	call	8009994 <__ssprint_r>
 8002a5c:	103ac61e 	bne	r2,zero,8001578 <__alt_data_end+0xfc001578>
 8002a60:	d8c02017 	ldw	r3,128(sp)
 8002a64:	d8801f17 	ldw	r2,124(sp)
 8002a68:	da000404 	addi	r8,sp,16
 8002a6c:	003fee06 	br	8002a28 <__alt_data_end+0xfc002a28>
 8002a70:	db002e17 	ldw	r12,184(sp)
 8002a74:	1805883a 	mov	r2,r3
 8002a78:	dac02d15 	stw	r11,180(sp)
 8002a7c:	0319c83a 	sub	r12,zero,r12
 8002a80:	db002e15 	stw	r12,184(sp)
 8002a84:	003ad106 	br	80015cc <__alt_data_end+0xfc0015cc>
 8002a88:	18800044 	addi	r2,r3,1
 8002a8c:	8c400814 	ori	r17,r17,32
 8002a90:	1c000047 	ldb	r16,1(r3)
 8002a94:	003a4606 	br	80013b0 <__alt_data_end+0xfc0013b0>
 8002a98:	d9002f17 	ldw	r4,188(sp)
 8002a9c:	b80b883a 	mov	r5,r23
 8002aa0:	b00d883a 	mov	r6,r22
 8002aa4:	80099940 	call	8009994 <__ssprint_r>
 8002aa8:	103ab31e 	bne	r2,zero,8001578 <__alt_data_end+0xfc001578>
 8002aac:	d8c02017 	ldw	r3,128(sp)
 8002ab0:	da000404 	addi	r8,sp,16
 8002ab4:	003d8a06 	br	80020e0 <__alt_data_end+0xfc0020e0>
 8002ab8:	057ff7c4 	movi	r21,-33
 8002abc:	00bfffc4 	movi	r2,-1
 8002ac0:	856a703a 	and	r21,r16,r21
 8002ac4:	48807126 	beq	r9,r2,8002c8c <___svfprintf_internal_r+0x1a34>
 8002ac8:	008011c4 	movi	r2,71
 8002acc:	a8814f26 	beq	r21,r2,800300c <___svfprintf_internal_r+0x1db4>
 8002ad0:	db003817 	ldw	r12,224(sp)
 8002ad4:	8ac04014 	ori	r11,r17,256
 8002ad8:	dac02d15 	stw	r11,180(sp)
 8002adc:	60015816 	blt	r12,zero,8003040 <___svfprintf_internal_r+0x1de8>
 8002ae0:	dc803817 	ldw	r18,224(sp)
 8002ae4:	d8002a05 	stb	zero,168(sp)
 8002ae8:	00801984 	movi	r2,102
 8002aec:	80808c26 	beq	r16,r2,8002d20 <___svfprintf_internal_r+0x1ac8>
 8002af0:	00801184 	movi	r2,70
 8002af4:	80808a26 	beq	r16,r2,8002d20 <___svfprintf_internal_r+0x1ac8>
 8002af8:	00801144 	movi	r2,69
 8002afc:	a8815426 	beq	r21,r2,8003050 <___svfprintf_internal_r+0x1df8>
 8002b00:	4839883a 	mov	fp,r9
 8002b04:	d8802604 	addi	r2,sp,152
 8002b08:	d8800115 	stw	r2,4(sp)
 8002b0c:	d9002f17 	ldw	r4,188(sp)
 8002b10:	d8802504 	addi	r2,sp,148
 8002b14:	d9403717 	ldw	r5,220(sp)
 8002b18:	d8800215 	stw	r2,8(sp)
 8002b1c:	d8802104 	addi	r2,sp,132
 8002b20:	df000015 	stw	fp,0(sp)
 8002b24:	d8800315 	stw	r2,12(sp)
 8002b28:	900d883a 	mov	r6,r18
 8002b2c:	01c00084 	movi	r7,2
 8002b30:	da004015 	stw	r8,256(sp)
 8002b34:	da403f15 	stw	r9,252(sp)
 8002b38:	80055380 	call	8005538 <_dtoa_r>
 8002b3c:	d8803115 	stw	r2,196(sp)
 8002b40:	008019c4 	movi	r2,103
 8002b44:	da004017 	ldw	r8,256(sp)
 8002b48:	da403f17 	ldw	r9,252(sp)
 8002b4c:	80800226 	beq	r16,r2,8002b58 <___svfprintf_internal_r+0x1900>
 8002b50:	008011c4 	movi	r2,71
 8002b54:	8080841e 	bne	r16,r2,8002d68 <___svfprintf_internal_r+0x1b10>
 8002b58:	8880004c 	andi	r2,r17,1
 8002b5c:	10015126 	beq	r2,zero,80030a4 <___svfprintf_internal_r+0x1e4c>
 8002b60:	db003117 	ldw	r12,196(sp)
 8002b64:	6715883a 	add	r10,r12,fp
 8002b68:	d9003717 	ldw	r4,220(sp)
 8002b6c:	900b883a 	mov	r5,r18
 8002b70:	000d883a 	mov	r6,zero
 8002b74:	000f883a 	mov	r7,zero
 8002b78:	da004015 	stw	r8,256(sp)
 8002b7c:	da403f15 	stw	r9,252(sp)
 8002b80:	da803e15 	stw	r10,248(sp)
 8002b84:	800f3140 	call	800f314 <__eqdf2>
 8002b88:	da004017 	ldw	r8,256(sp)
 8002b8c:	da403f17 	ldw	r9,252(sp)
 8002b90:	da803e17 	ldw	r10,248(sp)
 8002b94:	1000d926 	beq	r2,zero,8002efc <___svfprintf_internal_r+0x1ca4>
 8002b98:	d8802117 	ldw	r2,132(sp)
 8002b9c:	1280062e 	bgeu	r2,r10,8002bb8 <___svfprintf_internal_r+0x1960>
 8002ba0:	01000c04 	movi	r4,48
 8002ba4:	10c00044 	addi	r3,r2,1
 8002ba8:	d8c02115 	stw	r3,132(sp)
 8002bac:	11000005 	stb	r4,0(r2)
 8002bb0:	d8802117 	ldw	r2,132(sp)
 8002bb4:	12bffb36 	bltu	r2,r10,8002ba4 <__alt_data_end+0xfc002ba4>
 8002bb8:	db003117 	ldw	r12,196(sp)
 8002bbc:	1305c83a 	sub	r2,r2,r12
 8002bc0:	d8803315 	stw	r2,204(sp)
 8002bc4:	008011c4 	movi	r2,71
 8002bc8:	a880b626 	beq	r21,r2,8002ea4 <___svfprintf_internal_r+0x1c4c>
 8002bcc:	00801944 	movi	r2,101
 8002bd0:	14017e0e 	bge	r2,r16,80031cc <___svfprintf_internal_r+0x1f74>
 8002bd4:	00801984 	movi	r2,102
 8002bd8:	80812826 	beq	r16,r2,800307c <___svfprintf_internal_r+0x1e24>
 8002bdc:	db002617 	ldw	r12,152(sp)
 8002be0:	db003415 	stw	r12,208(sp)
 8002be4:	db003417 	ldw	r12,208(sp)
 8002be8:	dac03317 	ldw	r11,204(sp)
 8002bec:	62c11a16 	blt	r12,r11,8003058 <___svfprintf_internal_r+0x1e00>
 8002bf0:	8c40004c 	andi	r17,r17,1
 8002bf4:	88013d1e 	bne	r17,zero,80030ec <___svfprintf_internal_r+0x1e94>
 8002bf8:	6005883a 	mov	r2,r12
 8002bfc:	60012716 	blt	r12,zero,800309c <___svfprintf_internal_r+0x1e44>
 8002c00:	dc803417 	ldw	r18,208(sp)
 8002c04:	df002a07 	ldb	fp,168(sp)
 8002c08:	e000b01e 	bne	fp,zero,8002ecc <___svfprintf_internal_r+0x1c74>
 8002c0c:	dc402d17 	ldw	r17,180(sp)
 8002c10:	dd402783 	ldbu	r21,158(sp)
 8002c14:	d8802a15 	stw	r2,168(sp)
 8002c18:	dcc02d15 	stw	r19,180(sp)
 8002c1c:	d8003215 	stw	zero,200(sp)
 8002c20:	003ac606 	br	800173c <__alt_data_end+0xfc00173c>
 8002c24:	00820074 	movhi	r2,2049
 8002c28:	108c2304 	addi	r2,r2,12428
 8002c2c:	d8803115 	stw	r2,196(sp)
 8002c30:	003be506 	br	8001bc8 <__alt_data_end+0xfc001bc8>
 8002c34:	d9002f17 	ldw	r4,188(sp)
 8002c38:	04001004 	movi	r16,64
 8002c3c:	800b883a 	mov	r5,r16
 8002c40:	8007a740 	call	8007a74 <_malloc_r>
 8002c44:	b8800015 	stw	r2,0(r23)
 8002c48:	b8800415 	stw	r2,16(r23)
 8002c4c:	10016126 	beq	r2,zero,80031d4 <___svfprintf_internal_r+0x1f7c>
 8002c50:	bc000515 	stw	r16,20(r23)
 8002c54:	00399a06 	br	80012c0 <__alt_data_end+0xfc0012c0>
 8002c58:	00820074 	movhi	r2,2049
 8002c5c:	108c2604 	addi	r2,r2,12440
 8002c60:	d8803115 	stw	r2,196(sp)
 8002c64:	003f0406 	br	8002878 <__alt_data_end+0xfc002878>
 8002c68:	d9002f17 	ldw	r4,188(sp)
 8002c6c:	b80b883a 	mov	r5,r23
 8002c70:	b00d883a 	mov	r6,r22
 8002c74:	80099940 	call	8009994 <__ssprint_r>
 8002c78:	103a3f1e 	bne	r2,zero,8001578 <__alt_data_end+0xfc001578>
 8002c7c:	dc002617 	ldw	r16,152(sp)
 8002c80:	d8c02017 	ldw	r3,128(sp)
 8002c84:	da000404 	addi	r8,sp,16
 8002c88:	003f4b06 	br	80029b8 <__alt_data_end+0xfc0029b8>
 8002c8c:	02400184 	movi	r9,6
 8002c90:	003f8f06 	br	8002ad0 <__alt_data_end+0xfc002ad0>
 8002c94:	db002d17 	ldw	r12,180(sp)
 8002c98:	14c00017 	ldw	r19,0(r2)
 8002c9c:	0039883a 	mov	fp,zero
 8002ca0:	63000104 	addi	r12,r12,4
 8002ca4:	db002d15 	stw	r12,180(sp)
 8002ca8:	003c2b06 	br	8001d58 <__alt_data_end+0xfc001d58>
 8002cac:	d8c03117 	ldw	r3,196(sp)
 8002cb0:	b0e5c83a 	sub	r18,r22,r3
 8002cb4:	003a9c06 	br	8001728 <__alt_data_end+0xfc001728>
 8002cb8:	da004015 	stw	r8,256(sp)
 8002cbc:	80098fc0 	call	80098fc <strlen>
 8002cc0:	1025883a 	mov	r18,r2
 8002cc4:	da004017 	ldw	r8,256(sp)
 8002cc8:	903c450e 	bge	r18,zero,8001de0 <__alt_data_end+0xfc001de0>
 8002ccc:	0005883a 	mov	r2,zero
 8002cd0:	003c4306 	br	8001de0 <__alt_data_end+0xfc001de0>
 8002cd4:	d9002f17 	ldw	r4,188(sp)
 8002cd8:	b80b883a 	mov	r5,r23
 8002cdc:	b00d883a 	mov	r6,r22
 8002ce0:	80099940 	call	8009994 <__ssprint_r>
 8002ce4:	103a241e 	bne	r2,zero,8001578 <__alt_data_end+0xfc001578>
 8002ce8:	d8c02017 	ldw	r3,128(sp)
 8002cec:	d8801f17 	ldw	r2,124(sp)
 8002cf0:	da000404 	addi	r8,sp,16
 8002cf4:	db003317 	ldw	r12,204(sp)
 8002cf8:	dac03117 	ldw	r11,196(sp)
 8002cfc:	10800044 	addi	r2,r2,1
 8002d00:	60c7883a 	add	r3,r12,r3
 8002d04:	42c00015 	stw	r11,0(r8)
 8002d08:	43000115 	stw	r12,4(r8)
 8002d0c:	d8c02015 	stw	r3,128(sp)
 8002d10:	d8801f15 	stw	r2,124(sp)
 8002d14:	010001c4 	movi	r4,7
 8002d18:	20bb300e 	bge	r4,r2,80019dc <__alt_data_end+0xfc0019dc>
 8002d1c:	003d9c06 	br	8002390 <__alt_data_end+0xfc002390>
 8002d20:	d8802604 	addi	r2,sp,152
 8002d24:	d8800115 	stw	r2,4(sp)
 8002d28:	d9002f17 	ldw	r4,188(sp)
 8002d2c:	d8802504 	addi	r2,sp,148
 8002d30:	d9403717 	ldw	r5,220(sp)
 8002d34:	d8800215 	stw	r2,8(sp)
 8002d38:	d8802104 	addi	r2,sp,132
 8002d3c:	da400015 	stw	r9,0(sp)
 8002d40:	d8800315 	stw	r2,12(sp)
 8002d44:	900d883a 	mov	r6,r18
 8002d48:	01c000c4 	movi	r7,3
 8002d4c:	da004015 	stw	r8,256(sp)
 8002d50:	da403f15 	stw	r9,252(sp)
 8002d54:	80055380 	call	8005538 <_dtoa_r>
 8002d58:	da403f17 	ldw	r9,252(sp)
 8002d5c:	da004017 	ldw	r8,256(sp)
 8002d60:	d8803115 	stw	r2,196(sp)
 8002d64:	4839883a 	mov	fp,r9
 8002d68:	dac03117 	ldw	r11,196(sp)
 8002d6c:	00801184 	movi	r2,70
 8002d70:	5f15883a 	add	r10,r11,fp
 8002d74:	a8bf7c1e 	bne	r21,r2,8002b68 <__alt_data_end+0xfc002b68>
 8002d78:	59000007 	ldb	r4,0(r11)
 8002d7c:	00800c04 	movi	r2,48
 8002d80:	2080ca26 	beq	r4,r2,80030ac <___svfprintf_internal_r+0x1e54>
 8002d84:	d8c02617 	ldw	r3,152(sp)
 8002d88:	50d5883a 	add	r10,r10,r3
 8002d8c:	003f7606 	br	8002b68 <__alt_data_end+0xfc002b68>
 8002d90:	01020074 	movhi	r4,2049
 8002d94:	210c3784 	addi	r4,r4,12510
 8002d98:	d9003615 	stw	r4,216(sp)
 8002d9c:	003aa606 	br	8001838 <__alt_data_end+0xfc001838>
 8002da0:	0025883a 	mov	r18,zero
 8002da4:	003dc306 	br	80024b4 <__alt_data_end+0xfc0024b4>
 8002da8:	d9002f17 	ldw	r4,188(sp)
 8002dac:	b80b883a 	mov	r5,r23
 8002db0:	b00d883a 	mov	r6,r22
 8002db4:	80099940 	call	8009994 <__ssprint_r>
 8002db8:	1039ef1e 	bne	r2,zero,8001578 <__alt_data_end+0xfc001578>
 8002dbc:	d8c02017 	ldw	r3,128(sp)
 8002dc0:	da000404 	addi	r8,sp,16
 8002dc4:	003dba06 	br	80024b0 <__alt_data_end+0xfc0024b0>
 8002dc8:	d9002f17 	ldw	r4,188(sp)
 8002dcc:	b80b883a 	mov	r5,r23
 8002dd0:	b00d883a 	mov	r6,r22
 8002dd4:	80099940 	call	8009994 <__ssprint_r>
 8002dd8:	1039e71e 	bne	r2,zero,8001578 <__alt_data_end+0xfc001578>
 8002ddc:	d8802617 	ldw	r2,152(sp)
 8002de0:	d8c02017 	ldw	r3,128(sp)
 8002de4:	da000404 	addi	r8,sp,16
 8002de8:	003e4106 	br	80026f0 <__alt_data_end+0xfc0026f0>
 8002dec:	03020074 	movhi	r12,2049
 8002df0:	630c3384 	addi	r12,r12,12494
 8002df4:	db002b15 	stw	r12,172(sp)
 8002df8:	dac02b17 	ldw	r11,172(sp)
 8002dfc:	1c07883a 	add	r3,r3,r16
 8002e00:	10800044 	addi	r2,r2,1
 8002e04:	42c00015 	stw	r11,0(r8)
 8002e08:	44000115 	stw	r16,4(r8)
 8002e0c:	d8c02015 	stw	r3,128(sp)
 8002e10:	d8801f15 	stw	r2,124(sp)
 8002e14:	010001c4 	movi	r4,7
 8002e18:	20bfae16 	blt	r4,r2,8002cd4 <__alt_data_end+0xfc002cd4>
 8002e1c:	42000204 	addi	r8,r8,8
 8002e20:	003fb406 	br	8002cf4 <__alt_data_end+0xfc002cf4>
 8002e24:	0021883a 	mov	r16,zero
 8002e28:	003e4306 	br	8002738 <__alt_data_end+0xfc002738>
 8002e2c:	d9002f17 	ldw	r4,188(sp)
 8002e30:	b80b883a 	mov	r5,r23
 8002e34:	b00d883a 	mov	r6,r22
 8002e38:	80099940 	call	8009994 <__ssprint_r>
 8002e3c:	1039ce1e 	bne	r2,zero,8001578 <__alt_data_end+0xfc001578>
 8002e40:	d8802617 	ldw	r2,152(sp)
 8002e44:	db003317 	ldw	r12,204(sp)
 8002e48:	d8c02017 	ldw	r3,128(sp)
 8002e4c:	da000404 	addi	r8,sp,16
 8002e50:	6085c83a 	sub	r2,r12,r2
 8002e54:	003e3706 	br	8002734 <__alt_data_end+0xfc002734>
 8002e58:	00800184 	movi	r2,6
 8002e5c:	1240012e 	bgeu	r2,r9,8002e64 <___svfprintf_internal_r+0x1c0c>
 8002e60:	1013883a 	mov	r9,r2
 8002e64:	4825883a 	mov	r18,r9
 8002e68:	4805883a 	mov	r2,r9
 8002e6c:	4800a416 	blt	r9,zero,8003100 <___svfprintf_internal_r+0x1ea8>
 8002e70:	d8802a15 	stw	r2,168(sp)
 8002e74:	00820074 	movhi	r2,2049
 8002e78:	108c3104 	addi	r2,r2,12484
 8002e7c:	d8803115 	stw	r2,196(sp)
 8002e80:	dcc02d15 	stw	r19,180(sp)
 8002e84:	d8003215 	stw	zero,200(sp)
 8002e88:	d8003415 	stw	zero,208(sp)
 8002e8c:	0005883a 	mov	r2,zero
 8002e90:	003a3106 	br	8001758 <__alt_data_end+0xfc001758>
 8002e94:	03020074 	movhi	r12,2049
 8002e98:	630c3784 	addi	r12,r12,12510
 8002e9c:	db003615 	stw	r12,216(sp)
 8002ea0:	003af406 	br	8001a74 <__alt_data_end+0xfc001a74>
 8002ea4:	d8c02617 	ldw	r3,152(sp)
 8002ea8:	00bfff44 	movi	r2,-3
 8002eac:	18801516 	blt	r3,r2,8002f04 <___svfprintf_internal_r+0x1cac>
 8002eb0:	48c01416 	blt	r9,r3,8002f04 <___svfprintf_internal_r+0x1cac>
 8002eb4:	d8c03415 	stw	r3,208(sp)
 8002eb8:	040019c4 	movi	r16,103
 8002ebc:	003f4906 	br	8002be4 <__alt_data_end+0xfc002be4>
 8002ec0:	05400b44 	movi	r21,45
 8002ec4:	dd402785 	stb	r21,158(sp)
 8002ec8:	003b3a06 	br	8001bb4 <__alt_data_end+0xfc001bb4>
 8002ecc:	00c00b44 	movi	r3,45
 8002ed0:	d8802a15 	stw	r2,168(sp)
 8002ed4:	dc402d17 	ldw	r17,180(sp)
 8002ed8:	d8c02785 	stb	r3,158(sp)
 8002edc:	dcc02d15 	stw	r19,180(sp)
 8002ee0:	d8003215 	stw	zero,200(sp)
 8002ee4:	00800b44 	movi	r2,45
 8002ee8:	003a1806 	br	800174c <__alt_data_end+0xfc00174c>
 8002eec:	01020074 	movhi	r4,2049
 8002ef0:	210c3384 	addi	r4,r4,12494
 8002ef4:	d9002b15 	stw	r4,172(sp)
 8002ef8:	003cc306 	br	8002208 <__alt_data_end+0xfc002208>
 8002efc:	5005883a 	mov	r2,r10
 8002f00:	003f2d06 	br	8002bb8 <__alt_data_end+0xfc002bb8>
 8002f04:	843fff84 	addi	r16,r16,-2
 8002f08:	1f3fffc4 	addi	fp,r3,-1
 8002f0c:	df002615 	stw	fp,152(sp)
 8002f10:	dc0022c5 	stb	r16,139(sp)
 8002f14:	e000a216 	blt	fp,zero,80031a0 <___svfprintf_internal_r+0x1f48>
 8002f18:	00800ac4 	movi	r2,43
 8002f1c:	d8802305 	stb	r2,140(sp)
 8002f20:	00800244 	movi	r2,9
 8002f24:	1700820e 	bge	r2,fp,8003130 <___svfprintf_internal_r+0x1ed8>
 8002f28:	dd4022c4 	addi	r21,sp,139
 8002f2c:	dc002b15 	stw	r16,172(sp)
 8002f30:	8825883a 	mov	r18,r17
 8002f34:	a821883a 	mov	r16,r21
 8002f38:	4023883a 	mov	r17,r8
 8002f3c:	e009883a 	mov	r4,fp
 8002f40:	01400284 	movi	r5,10
 8002f44:	800e1400 	call	800e140 <__modsi3>
 8002f48:	10800c04 	addi	r2,r2,48
 8002f4c:	843fffc4 	addi	r16,r16,-1
 8002f50:	e009883a 	mov	r4,fp
 8002f54:	01400284 	movi	r5,10
 8002f58:	80800005 	stb	r2,0(r16)
 8002f5c:	800e0ec0 	call	800e0ec <__divsi3>
 8002f60:	1039883a 	mov	fp,r2
 8002f64:	00800244 	movi	r2,9
 8002f68:	173ff416 	blt	r2,fp,8002f3c <__alt_data_end+0xfc002f3c>
 8002f6c:	8811883a 	mov	r8,r17
 8002f70:	e0800c04 	addi	r2,fp,48
 8002f74:	9023883a 	mov	r17,r18
 8002f78:	8025883a 	mov	r18,r16
 8002f7c:	913fffc4 	addi	r4,r18,-1
 8002f80:	90bfffc5 	stb	r2,-1(r18)
 8002f84:	dc002b17 	ldw	r16,172(sp)
 8002f88:	25408e2e 	bgeu	r4,r21,80031c4 <___svfprintf_internal_r+0x1f6c>
 8002f8c:	d9402384 	addi	r5,sp,142
 8002f90:	2c8bc83a 	sub	r5,r5,r18
 8002f94:	d8c02344 	addi	r3,sp,141
 8002f98:	a94b883a 	add	r5,r21,r5
 8002f9c:	00000106 	br	8002fa4 <___svfprintf_internal_r+0x1d4c>
 8002fa0:	20800003 	ldbu	r2,0(r4)
 8002fa4:	18800005 	stb	r2,0(r3)
 8002fa8:	18c00044 	addi	r3,r3,1
 8002fac:	21000044 	addi	r4,r4,1
 8002fb0:	197ffb1e 	bne	r3,r5,8002fa0 <__alt_data_end+0xfc002fa0>
 8002fb4:	d8802304 	addi	r2,sp,140
 8002fb8:	1485c83a 	sub	r2,r2,r18
 8002fbc:	d8c02344 	addi	r3,sp,141
 8002fc0:	1885883a 	add	r2,r3,r2
 8002fc4:	dac03317 	ldw	r11,204(sp)
 8002fc8:	156bc83a 	sub	r21,r2,r21
 8002fcc:	dd403a15 	stw	r21,232(sp)
 8002fd0:	00800044 	movi	r2,1
 8002fd4:	5d65883a 	add	r18,r11,r21
 8002fd8:	12c0770e 	bge	r2,r11,80031b8 <___svfprintf_internal_r+0x1f60>
 8002fdc:	94800044 	addi	r18,r18,1
 8002fe0:	9005883a 	mov	r2,r18
 8002fe4:	90007216 	blt	r18,zero,80031b0 <___svfprintf_internal_r+0x1f58>
 8002fe8:	d8003415 	stw	zero,208(sp)
 8002fec:	003f0506 	br	8002c04 <__alt_data_end+0xfc002c04>
 8002ff0:	da402a15 	stw	r9,168(sp)
 8002ff4:	dd402783 	ldbu	r21,158(sp)
 8002ff8:	4825883a 	mov	r18,r9
 8002ffc:	dcc02d15 	stw	r19,180(sp)
 8003000:	d8003215 	stw	zero,200(sp)
 8003004:	d8003415 	stw	zero,208(sp)
 8003008:	0039cc06 	br	800173c <__alt_data_end+0xfc00173c>
 800300c:	483eb01e 	bne	r9,zero,8002ad0 <__alt_data_end+0xfc002ad0>
 8003010:	9013883a 	mov	r9,r18
 8003014:	003eae06 	br	8002ad0 <__alt_data_end+0xfc002ad0>
 8003018:	d9002f17 	ldw	r4,188(sp)
 800301c:	b80b883a 	mov	r5,r23
 8003020:	b00d883a 	mov	r6,r22
 8003024:	80099940 	call	8009994 <__ssprint_r>
 8003028:	1039531e 	bne	r2,zero,8001578 <__alt_data_end+0xfc001578>
 800302c:	dc002617 	ldw	r16,152(sp)
 8003030:	d8c02017 	ldw	r3,128(sp)
 8003034:	d8801f17 	ldw	r2,124(sp)
 8003038:	da000404 	addi	r8,sp,16
 800303c:	003e6f06 	br	80029fc <__alt_data_end+0xfc0029fc>
 8003040:	00c00b44 	movi	r3,45
 8003044:	64a0003c 	xorhi	r18,r12,32768
 8003048:	d8c02a05 	stb	r3,168(sp)
 800304c:	003ea606 	br	8002ae8 <__alt_data_end+0xfc002ae8>
 8003050:	4f000044 	addi	fp,r9,1
 8003054:	003eab06 	br	8002b04 <__alt_data_end+0xfc002b04>
 8003058:	d8c03417 	ldw	r3,208(sp)
 800305c:	00c0410e 	bge	zero,r3,8003164 <___svfprintf_internal_r+0x1f0c>
 8003060:	04800044 	movi	r18,1
 8003064:	dac03317 	ldw	r11,204(sp)
 8003068:	92e5883a 	add	r18,r18,r11
 800306c:	9005883a 	mov	r2,r18
 8003070:	903ee40e 	bge	r18,zero,8002c04 <__alt_data_end+0xfc002c04>
 8003074:	0005883a 	mov	r2,zero
 8003078:	003ee206 	br	8002c04 <__alt_data_end+0xfc002c04>
 800307c:	d8c02617 	ldw	r3,152(sp)
 8003080:	d8c03415 	stw	r3,208(sp)
 8003084:	00c0310e 	bge	zero,r3,800314c <___svfprintf_internal_r+0x1ef4>
 8003088:	48001f1e 	bne	r9,zero,8003108 <___svfprintf_internal_r+0x1eb0>
 800308c:	8c40004c 	andi	r17,r17,1
 8003090:	88001d1e 	bne	r17,zero,8003108 <___svfprintf_internal_r+0x1eb0>
 8003094:	1805883a 	mov	r2,r3
 8003098:	183ed90e 	bge	r3,zero,8002c00 <__alt_data_end+0xfc002c00>
 800309c:	0005883a 	mov	r2,zero
 80030a0:	003ed706 	br	8002c00 <__alt_data_end+0xfc002c00>
 80030a4:	d8802117 	ldw	r2,132(sp)
 80030a8:	003ec306 	br	8002bb8 <__alt_data_end+0xfc002bb8>
 80030ac:	d9003717 	ldw	r4,220(sp)
 80030b0:	900b883a 	mov	r5,r18
 80030b4:	000d883a 	mov	r6,zero
 80030b8:	000f883a 	mov	r7,zero
 80030bc:	da004015 	stw	r8,256(sp)
 80030c0:	da403f15 	stw	r9,252(sp)
 80030c4:	da803e15 	stw	r10,248(sp)
 80030c8:	800f3140 	call	800f314 <__eqdf2>
 80030cc:	da004017 	ldw	r8,256(sp)
 80030d0:	da403f17 	ldw	r9,252(sp)
 80030d4:	da803e17 	ldw	r10,248(sp)
 80030d8:	103f2a26 	beq	r2,zero,8002d84 <__alt_data_end+0xfc002d84>
 80030dc:	00800044 	movi	r2,1
 80030e0:	1707c83a 	sub	r3,r2,fp
 80030e4:	d8c02615 	stw	r3,152(sp)
 80030e8:	003f2706 	br	8002d88 <__alt_data_end+0xfc002d88>
 80030ec:	db003417 	ldw	r12,208(sp)
 80030f0:	64800044 	addi	r18,r12,1
 80030f4:	9005883a 	mov	r2,r18
 80030f8:	903ec20e 	bge	r18,zero,8002c04 <__alt_data_end+0xfc002c04>
 80030fc:	003fdd06 	br	8003074 <__alt_data_end+0xfc003074>
 8003100:	0005883a 	mov	r2,zero
 8003104:	003f5a06 	br	8002e70 <__alt_data_end+0xfc002e70>
 8003108:	dac03417 	ldw	r11,208(sp)
 800310c:	4a400044 	addi	r9,r9,1
 8003110:	5a65883a 	add	r18,r11,r9
 8003114:	9005883a 	mov	r2,r18
 8003118:	903eba0e 	bge	r18,zero,8002c04 <__alt_data_end+0xfc002c04>
 800311c:	003fd506 	br	8003074 <__alt_data_end+0xfc003074>
 8003120:	00820074 	movhi	r2,2049
 8003124:	108c3384 	addi	r2,r2,12494
 8003128:	d8802b15 	stw	r2,172(sp)
 800312c:	003d2906 	br	80025d4 <__alt_data_end+0xfc0025d4>
 8003130:	00800c04 	movi	r2,48
 8003134:	e0c00c04 	addi	r3,fp,48
 8003138:	d8802345 	stb	r2,141(sp)
 800313c:	d8c02385 	stb	r3,142(sp)
 8003140:	d88023c4 	addi	r2,sp,143
 8003144:	dd4022c4 	addi	r21,sp,139
 8003148:	003f9e06 	br	8002fc4 <__alt_data_end+0xfc002fc4>
 800314c:	4800081e 	bne	r9,zero,8003170 <___svfprintf_internal_r+0x1f18>
 8003150:	8c40004c 	andi	r17,r17,1
 8003154:	8800061e 	bne	r17,zero,8003170 <___svfprintf_internal_r+0x1f18>
 8003158:	00800044 	movi	r2,1
 800315c:	1025883a 	mov	r18,r2
 8003160:	003ea806 	br	8002c04 <__alt_data_end+0xfc002c04>
 8003164:	04800084 	movi	r18,2
 8003168:	90e5c83a 	sub	r18,r18,r3
 800316c:	003fbd06 	br	8003064 <__alt_data_end+0xfc003064>
 8003170:	4c800084 	addi	r18,r9,2
 8003174:	9005883a 	mov	r2,r18
 8003178:	903ea20e 	bge	r18,zero,8002c04 <__alt_data_end+0xfc002c04>
 800317c:	003fbd06 	br	8003074 <__alt_data_end+0xfc003074>
 8003180:	dac02d17 	ldw	r11,180(sp)
 8003184:	5a400017 	ldw	r9,0(r11)
 8003188:	5ac00104 	addi	r11,r11,4
 800318c:	dac02d15 	stw	r11,180(sp)
 8003190:	483e3f0e 	bge	r9,zero,8002a90 <__alt_data_end+0xfc002a90>
 8003194:	027fffc4 	movi	r9,-1
 8003198:	1c000047 	ldb	r16,1(r3)
 800319c:	00388406 	br	80013b0 <__alt_data_end+0xfc0013b0>
 80031a0:	00800b44 	movi	r2,45
 80031a4:	0739c83a 	sub	fp,zero,fp
 80031a8:	d8802305 	stb	r2,140(sp)
 80031ac:	003f5c06 	br	8002f20 <__alt_data_end+0xfc002f20>
 80031b0:	0005883a 	mov	r2,zero
 80031b4:	003f8c06 	br	8002fe8 <__alt_data_end+0xfc002fe8>
 80031b8:	88a2703a 	and	r17,r17,r2
 80031bc:	883f8826 	beq	r17,zero,8002fe0 <__alt_data_end+0xfc002fe0>
 80031c0:	003f8606 	br	8002fdc <__alt_data_end+0xfc002fdc>
 80031c4:	d8802344 	addi	r2,sp,141
 80031c8:	003f7e06 	br	8002fc4 <__alt_data_end+0xfc002fc4>
 80031cc:	d8c02617 	ldw	r3,152(sp)
 80031d0:	003f4d06 	br	8002f08 <__alt_data_end+0xfc002f08>
 80031d4:	dac02f17 	ldw	r11,188(sp)
 80031d8:	00800304 	movi	r2,12
 80031dc:	58800015 	stw	r2,0(r11)
 80031e0:	00bfffc4 	movi	r2,-1
 80031e4:	0038e806 	br	8001588 <__alt_data_end+0xfc001588>

080031e8 <___vfprintf_internal_r>:
 80031e8:	defeb604 	addi	sp,sp,-1320
 80031ec:	dfc14915 	stw	ra,1316(sp)
 80031f0:	ddc14715 	stw	r23,1308(sp)
 80031f4:	dd814615 	stw	r22,1304(sp)
 80031f8:	282f883a 	mov	r23,r5
 80031fc:	202d883a 	mov	r22,r4
 8003200:	d9812a15 	stw	r6,1192(sp)
 8003204:	d9c12d15 	stw	r7,1204(sp)
 8003208:	df014815 	stw	fp,1312(sp)
 800320c:	dd414515 	stw	r21,1300(sp)
 8003210:	dd014415 	stw	r20,1296(sp)
 8003214:	dcc14315 	stw	r19,1292(sp)
 8003218:	dc814215 	stw	r18,1288(sp)
 800321c:	dc414115 	stw	r17,1284(sp)
 8003220:	dc014015 	stw	r16,1280(sp)
 8003224:	80078880 	call	8007888 <_localeconv_r>
 8003228:	10800017 	ldw	r2,0(r2)
 800322c:	1009883a 	mov	r4,r2
 8003230:	d8813515 	stw	r2,1236(sp)
 8003234:	80098fc0 	call	80098fc <strlen>
 8003238:	d8813815 	stw	r2,1248(sp)
 800323c:	b0000226 	beq	r22,zero,8003248 <___vfprintf_internal_r+0x60>
 8003240:	b0800e17 	ldw	r2,56(r22)
 8003244:	10010426 	beq	r2,zero,8003658 <___vfprintf_internal_r+0x470>
 8003248:	b8c0030b 	ldhu	r3,12(r23)
 800324c:	1908000c 	andi	r4,r3,8192
 8003250:	1805883a 	mov	r2,r3
 8003254:	2000071e 	bne	r4,zero,8003274 <___vfprintf_internal_r+0x8c>
 8003258:	b9001917 	ldw	r4,100(r23)
 800325c:	18880014 	ori	r2,r3,8192
 8003260:	00f7ffc4 	movi	r3,-8193
 8003264:	20c8703a 	and	r4,r4,r3
 8003268:	b880030d 	sth	r2,12(r23)
 800326c:	1007883a 	mov	r3,r2
 8003270:	b9001915 	stw	r4,100(r23)
 8003274:	1100020c 	andi	r4,r2,8
 8003278:	2000a726 	beq	r4,zero,8003518 <___vfprintf_internal_r+0x330>
 800327c:	b9000417 	ldw	r4,16(r23)
 8003280:	2000a526 	beq	r4,zero,8003518 <___vfprintf_internal_r+0x330>
 8003284:	1080068c 	andi	r2,r2,26
 8003288:	01000284 	movi	r4,10
 800328c:	1100ab26 	beq	r2,r4,800353c <___vfprintf_internal_r+0x354>
 8003290:	dac10e04 	addi	r11,sp,1080
 8003294:	db010dc4 	addi	r12,sp,1079
 8003298:	d8800404 	addi	r2,sp,16
 800329c:	05020074 	movhi	r20,2049
 80032a0:	dac12815 	stw	r11,1184(sp)
 80032a4:	5b17c83a 	sub	r11,r11,r12
 80032a8:	a50c3b84 	addi	r20,r20,12526
 80032ac:	db012915 	stw	r12,1188(sp)
 80032b0:	d8811e15 	stw	r2,1144(sp)
 80032b4:	d8012015 	stw	zero,1152(sp)
 80032b8:	d8011f15 	stw	zero,1148(sp)
 80032bc:	d8013315 	stw	zero,1228(sp)
 80032c0:	d8013715 	stw	zero,1244(sp)
 80032c4:	d8013915 	stw	zero,1252(sp)
 80032c8:	d8013b15 	stw	zero,1260(sp)
 80032cc:	d8013a15 	stw	zero,1256(sp)
 80032d0:	d8012f15 	stw	zero,1212(sp)
 80032d4:	1011883a 	mov	r8,r2
 80032d8:	dac13c15 	stw	r11,1264(sp)
 80032dc:	db012a17 	ldw	r12,1192(sp)
 80032e0:	60800007 	ldb	r2,0(r12)
 80032e4:	1000df26 	beq	r2,zero,8003664 <___vfprintf_internal_r+0x47c>
 80032e8:	00c00944 	movi	r3,37
 80032ec:	10c0dd26 	beq	r2,r3,8003664 <___vfprintf_internal_r+0x47c>
 80032f0:	6021883a 	mov	r16,r12
 80032f4:	00000106 	br	80032fc <___vfprintf_internal_r+0x114>
 80032f8:	10c08426 	beq	r2,r3,800350c <___vfprintf_internal_r+0x324>
 80032fc:	84000044 	addi	r16,r16,1
 8003300:	80800007 	ldb	r2,0(r16)
 8003304:	103ffc1e 	bne	r2,zero,80032f8 <__alt_data_end+0xfc0032f8>
 8003308:	dac12a17 	ldw	r11,1192(sp)
 800330c:	82e3c83a 	sub	r17,r16,r11
 8003310:	88000f26 	beq	r17,zero,8003350 <___vfprintf_internal_r+0x168>
 8003314:	d8c12017 	ldw	r3,1152(sp)
 8003318:	d8811f17 	ldw	r2,1148(sp)
 800331c:	dac12a17 	ldw	r11,1192(sp)
 8003320:	1c47883a 	add	r3,r3,r17
 8003324:	10800044 	addi	r2,r2,1
 8003328:	d8c12015 	stw	r3,1152(sp)
 800332c:	42c00015 	stw	r11,0(r8)
 8003330:	44400115 	stw	r17,4(r8)
 8003334:	d8811f15 	stw	r2,1148(sp)
 8003338:	00c001c4 	movi	r3,7
 800333c:	1880b416 	blt	r3,r2,8003610 <___vfprintf_internal_r+0x428>
 8003340:	42000204 	addi	r8,r8,8
 8003344:	db012f17 	ldw	r12,1212(sp)
 8003348:	6459883a 	add	r12,r12,r17
 800334c:	db012f15 	stw	r12,1212(sp)
 8003350:	80800007 	ldb	r2,0(r16)
 8003354:	1000b526 	beq	r2,zero,800362c <___vfprintf_internal_r+0x444>
 8003358:	80800044 	addi	r2,r16,1
 800335c:	84000047 	ldb	r16,1(r16)
 8003360:	d8012785 	stb	zero,1182(sp)
 8003364:	000d883a 	mov	r6,zero
 8003368:	027fffc4 	movi	r9,-1
 800336c:	d8012e15 	stw	zero,1208(sp)
 8003370:	0023883a 	mov	r17,zero
 8003374:	01001604 	movi	r4,88
 8003378:	01400244 	movi	r5,9
 800337c:	02800a84 	movi	r10,42
 8003380:	01c01b04 	movi	r7,108
 8003384:	10c00044 	addi	r3,r2,1
 8003388:	80bff804 	addi	r2,r16,-32
 800338c:	2082f236 	bltu	r4,r2,8003f58 <___vfprintf_internal_r+0xd70>
 8003390:	100490ba 	slli	r2,r2,2
 8003394:	02c20034 	movhi	r11,2048
 8003398:	5accea04 	addi	r11,r11,13224
 800339c:	12c5883a 	add	r2,r2,r11
 80033a0:	10800017 	ldw	r2,0(r2)
 80033a4:	1000683a 	jmp	r2
 80033a8:	08003da0 	cmpeqi	zero,at,246
 80033ac:	08003f58 	cmpnei	zero,at,253
 80033b0:	08003f58 	cmpnei	zero,at,253
 80033b4:	08003dc0 	call	8003dc <__reset-0x77ffc24>
 80033b8:	08003f58 	cmpnei	zero,at,253
 80033bc:	08003f58 	cmpnei	zero,at,253
 80033c0:	08003f58 	cmpnei	zero,at,253
 80033c4:	08003f58 	cmpnei	zero,at,253
 80033c8:	08003f58 	cmpnei	zero,at,253
 80033cc:	08003f58 	cmpnei	zero,at,253
 80033d0:	08003f1c 	xori	zero,at,252
 80033d4:	08003f48 	cmpgei	zero,at,253
 80033d8:	08003f58 	cmpnei	zero,at,253
 80033dc:	0800366c 	andhi	zero,at,217
 80033e0:	0800367c 	xorhi	zero,at,217
 80033e4:	08003f58 	cmpnei	zero,at,253
 80033e8:	080036bc 	xorhi	zero,at,218
 80033ec:	08003bb0 	cmpltui	zero,at,238
 80033f0:	08003bb0 	cmpltui	zero,at,238
 80033f4:	08003bb0 	cmpltui	zero,at,238
 80033f8:	08003bb0 	cmpltui	zero,at,238
 80033fc:	08003bb0 	cmpltui	zero,at,238
 8003400:	08003bb0 	cmpltui	zero,at,238
 8003404:	08003bb0 	cmpltui	zero,at,238
 8003408:	08003bb0 	cmpltui	zero,at,238
 800340c:	08003bb0 	cmpltui	zero,at,238
 8003410:	08003f58 	cmpnei	zero,at,253
 8003414:	08003f58 	cmpnei	zero,at,253
 8003418:	08003f58 	cmpnei	zero,at,253
 800341c:	08003f58 	cmpnei	zero,at,253
 8003420:	08003f58 	cmpnei	zero,at,253
 8003424:	08003f58 	cmpnei	zero,at,253
 8003428:	08003f58 	cmpnei	zero,at,253
 800342c:	08003f58 	cmpnei	zero,at,253
 8003430:	08003f58 	cmpnei	zero,at,253
 8003434:	08003f58 	cmpnei	zero,at,253
 8003438:	08003be4 	muli	zero,at,239
 800343c:	080036cc 	andi	zero,at,219
 8003440:	08003f58 	cmpnei	zero,at,253
 8003444:	080036cc 	andi	zero,at,219
 8003448:	08003f58 	cmpnei	zero,at,253
 800344c:	08003f58 	cmpnei	zero,at,253
 8003450:	08003f58 	cmpnei	zero,at,253
 8003454:	08003f58 	cmpnei	zero,at,253
 8003458:	08003770 	cmpltui	zero,at,221
 800345c:	08003f58 	cmpnei	zero,at,253
 8003460:	08003f58 	cmpnei	zero,at,253
 8003464:	08003780 	call	800378 <__reset-0x77ffc88>
 8003468:	08003f58 	cmpnei	zero,at,253
 800346c:	08003f58 	cmpnei	zero,at,253
 8003470:	08003f58 	cmpnei	zero,at,253
 8003474:	08003f58 	cmpnei	zero,at,253
 8003478:	08003f58 	cmpnei	zero,at,253
 800347c:	08003b7c 	xorhi	zero,at,237
 8003480:	08003f58 	cmpnei	zero,at,253
 8003484:	08003f58 	cmpnei	zero,at,253
 8003488:	08003c2c 	andhi	zero,at,240
 800348c:	08003f58 	cmpnei	zero,at,253
 8003490:	08003f58 	cmpnei	zero,at,253
 8003494:	08003f58 	cmpnei	zero,at,253
 8003498:	08003f58 	cmpnei	zero,at,253
 800349c:	08003f58 	cmpnei	zero,at,253
 80034a0:	08003f58 	cmpnei	zero,at,253
 80034a4:	08003f58 	cmpnei	zero,at,253
 80034a8:	08003f58 	cmpnei	zero,at,253
 80034ac:	08003f58 	cmpnei	zero,at,253
 80034b0:	08003f58 	cmpnei	zero,at,253
 80034b4:	08003e20 	cmpeqi	zero,at,248
 80034b8:	08003dd0 	cmplti	zero,at,247
 80034bc:	080036cc 	andi	zero,at,219
 80034c0:	080036cc 	andi	zero,at,219
 80034c4:	080036cc 	andi	zero,at,219
 80034c8:	08003e10 	cmplti	zero,at,248
 80034cc:	08003dd0 	cmplti	zero,at,247
 80034d0:	08003f58 	cmpnei	zero,at,253
 80034d4:	08003f58 	cmpnei	zero,at,253
 80034d8:	08003d18 	cmpnei	zero,at,244
 80034dc:	08003f58 	cmpnei	zero,at,253
 80034e0:	08003d2c 	andhi	zero,at,244
 80034e4:	08003d60 	cmpeqi	zero,at,245
 80034e8:	08003e60 	cmpeqi	zero,at,249
 80034ec:	08003c88 	cmpgei	zero,at,242
 80034f0:	08003f58 	cmpnei	zero,at,253
 80034f4:	08003ea8 	cmpgeui	zero,at,250
 80034f8:	08003f58 	cmpnei	zero,at,253
 80034fc:	08003c98 	cmpnei	zero,at,242
 8003500:	08003f58 	cmpnei	zero,at,253
 8003504:	08003f58 	cmpnei	zero,at,253
 8003508:	08003cd8 	cmpnei	zero,at,243
 800350c:	db012a17 	ldw	r12,1192(sp)
 8003510:	8323c83a 	sub	r17,r16,r12
 8003514:	003f7e06 	br	8003310 <__alt_data_end+0xfc003310>
 8003518:	b009883a 	mov	r4,r22
 800351c:	b80b883a 	mov	r5,r23
 8003520:	80052080 	call	8005208 <__swsetup_r>
 8003524:	10002d1e 	bne	r2,zero,80035dc <___vfprintf_internal_r+0x3f4>
 8003528:	b8c0030b 	ldhu	r3,12(r23)
 800352c:	01000284 	movi	r4,10
 8003530:	1805883a 	mov	r2,r3
 8003534:	1080068c 	andi	r2,r2,26
 8003538:	113f551e 	bne	r2,r4,8003290 <__alt_data_end+0xfc003290>
 800353c:	b880038b 	ldhu	r2,14(r23)
 8003540:	113fffcc 	andi	r4,r2,65535
 8003544:	2120001c 	xori	r4,r4,32768
 8003548:	21200004 	addi	r4,r4,-32768
 800354c:	203f5016 	blt	r4,zero,8003290 <__alt_data_end+0xfc003290>
 8003550:	bac01917 	ldw	r11,100(r23)
 8003554:	ba800717 	ldw	r10,28(r23)
 8003558:	ba400917 	ldw	r9,36(r23)
 800355c:	d9812a17 	ldw	r6,1192(sp)
 8003560:	d9c12d17 	ldw	r7,1204(sp)
 8003564:	02010004 	movi	r8,1024
 8003568:	18ffff4c 	andi	r3,r3,65533
 800356c:	d881078d 	sth	r2,1054(sp)
 8003570:	b009883a 	mov	r4,r22
 8003574:	d8800404 	addi	r2,sp,16
 8003578:	d9410404 	addi	r5,sp,1040
 800357c:	d8c1070d 	sth	r3,1052(sp)
 8003580:	dac11d15 	stw	r11,1140(sp)
 8003584:	da810b15 	stw	r10,1068(sp)
 8003588:	da410d15 	stw	r9,1076(sp)
 800358c:	d8810415 	stw	r2,1040(sp)
 8003590:	d8810815 	stw	r2,1056(sp)
 8003594:	da010615 	stw	r8,1048(sp)
 8003598:	da010915 	stw	r8,1060(sp)
 800359c:	d8010a15 	stw	zero,1064(sp)
 80035a0:	80031e80 	call	80031e8 <___vfprintf_internal_r>
 80035a4:	1021883a 	mov	r16,r2
 80035a8:	10000416 	blt	r2,zero,80035bc <___vfprintf_internal_r+0x3d4>
 80035ac:	b009883a 	mov	r4,r22
 80035b0:	d9410404 	addi	r5,sp,1040
 80035b4:	8006c600 	call	8006c60 <_fflush_r>
 80035b8:	1006ee1e 	bne	r2,zero,8005174 <___vfprintf_internal_r+0x1f8c>
 80035bc:	d881070b 	ldhu	r2,1052(sp)
 80035c0:	1080100c 	andi	r2,r2,64
 80035c4:	10000326 	beq	r2,zero,80035d4 <___vfprintf_internal_r+0x3ec>
 80035c8:	b880030b 	ldhu	r2,12(r23)
 80035cc:	10801014 	ori	r2,r2,64
 80035d0:	b880030d 	sth	r2,12(r23)
 80035d4:	8005883a 	mov	r2,r16
 80035d8:	00000106 	br	80035e0 <___vfprintf_internal_r+0x3f8>
 80035dc:	00bfffc4 	movi	r2,-1
 80035e0:	dfc14917 	ldw	ra,1316(sp)
 80035e4:	df014817 	ldw	fp,1312(sp)
 80035e8:	ddc14717 	ldw	r23,1308(sp)
 80035ec:	dd814617 	ldw	r22,1304(sp)
 80035f0:	dd414517 	ldw	r21,1300(sp)
 80035f4:	dd014417 	ldw	r20,1296(sp)
 80035f8:	dcc14317 	ldw	r19,1292(sp)
 80035fc:	dc814217 	ldw	r18,1288(sp)
 8003600:	dc414117 	ldw	r17,1284(sp)
 8003604:	dc014017 	ldw	r16,1280(sp)
 8003608:	dec14a04 	addi	sp,sp,1320
 800360c:	f800283a 	ret
 8003610:	b009883a 	mov	r4,r22
 8003614:	b80b883a 	mov	r5,r23
 8003618:	d9811e04 	addi	r6,sp,1144
 800361c:	800acc00 	call	800acc0 <__sprint_r>
 8003620:	1000081e 	bne	r2,zero,8003644 <___vfprintf_internal_r+0x45c>
 8003624:	da000404 	addi	r8,sp,16
 8003628:	003f4606 	br	8003344 <__alt_data_end+0xfc003344>
 800362c:	d8812017 	ldw	r2,1152(sp)
 8003630:	10000426 	beq	r2,zero,8003644 <___vfprintf_internal_r+0x45c>
 8003634:	b009883a 	mov	r4,r22
 8003638:	b80b883a 	mov	r5,r23
 800363c:	d9811e04 	addi	r6,sp,1144
 8003640:	800acc00 	call	800acc0 <__sprint_r>
 8003644:	b880030b 	ldhu	r2,12(r23)
 8003648:	1080100c 	andi	r2,r2,64
 800364c:	103fe31e 	bne	r2,zero,80035dc <__alt_data_end+0xfc0035dc>
 8003650:	d8812f17 	ldw	r2,1212(sp)
 8003654:	003fe206 	br	80035e0 <__alt_data_end+0xfc0035e0>
 8003658:	b009883a 	mov	r4,r22
 800365c:	80072080 	call	8007208 <__sinit>
 8003660:	003ef906 	br	8003248 <__alt_data_end+0xfc003248>
 8003664:	dc012a17 	ldw	r16,1192(sp)
 8003668:	003f3906 	br	8003350 <__alt_data_end+0xfc003350>
 800366c:	1805883a 	mov	r2,r3
 8003670:	8c400114 	ori	r17,r17,4
 8003674:	1c000007 	ldb	r16,0(r3)
 8003678:	003f4206 	br	8003384 <__alt_data_end+0xfc003384>
 800367c:	1c000007 	ldb	r16,0(r3)
 8003680:	18800044 	addi	r2,r3,1
 8003684:	8286b326 	beq	r16,r10,8005154 <___vfprintf_internal_r+0x1f6c>
 8003688:	82fff404 	addi	r11,r16,-48
 800368c:	1007883a 	mov	r3,r2
 8003690:	0013883a 	mov	r9,zero
 8003694:	2aff3c36 	bltu	r5,r11,8003388 <__alt_data_end+0xfc003388>
 8003698:	1c000007 	ldb	r16,0(r3)
 800369c:	4a4002a4 	muli	r9,r9,10
 80036a0:	18c00044 	addi	r3,r3,1
 80036a4:	5a53883a 	add	r9,r11,r9
 80036a8:	82fff404 	addi	r11,r16,-48
 80036ac:	2afffa2e 	bgeu	r5,r11,8003698 <__alt_data_end+0xfc003698>
 80036b0:	483f350e 	bge	r9,zero,8003388 <__alt_data_end+0xfc003388>
 80036b4:	027fffc4 	movi	r9,-1
 80036b8:	003f3306 	br	8003388 <__alt_data_end+0xfc003388>
 80036bc:	8c402014 	ori	r17,r17,128
 80036c0:	1805883a 	mov	r2,r3
 80036c4:	1c000007 	ldb	r16,0(r3)
 80036c8:	003f2e06 	br	8003384 <__alt_data_end+0xfc003384>
 80036cc:	db012d17 	ldw	r12,1204(sp)
 80036d0:	dac12d17 	ldw	r11,1204(sp)
 80036d4:	d8c12a15 	stw	r3,1192(sp)
 80036d8:	63000017 	ldw	r12,0(r12)
 80036dc:	5ac00117 	ldw	r11,4(r11)
 80036e0:	d9812785 	stb	r6,1182(sp)
 80036e4:	6009883a 	mov	r4,r12
 80036e8:	580b883a 	mov	r5,r11
 80036ec:	db013715 	stw	r12,1244(sp)
 80036f0:	da013f15 	stw	r8,1276(sp)
 80036f4:	da413e15 	stw	r9,1272(sp)
 80036f8:	dac13915 	stw	r11,1252(sp)
 80036fc:	80096540 	call	8009654 <__fpclassifyd>
 8003700:	db012d17 	ldw	r12,1204(sp)
 8003704:	04800044 	movi	r18,1
 8003708:	da013f17 	ldw	r8,1276(sp)
 800370c:	64c00204 	addi	r19,r12,8
 8003710:	da413e17 	ldw	r9,1272(sp)
 8003714:	d9013717 	ldw	r4,1244(sp)
 8003718:	d9413917 	ldw	r5,1252(sp)
 800371c:	1484581e 	bne	r2,r18,8004880 <___vfprintf_internal_r+0x1698>
 8003720:	000d883a 	mov	r6,zero
 8003724:	000f883a 	mov	r7,zero
 8003728:	800f4780 	call	800f478 <__ledf2>
 800372c:	da013f17 	ldw	r8,1276(sp)
 8003730:	1005ef16 	blt	r2,zero,8004ef0 <___vfprintf_internal_r+0x1d08>
 8003734:	dd412783 	ldbu	r21,1182(sp)
 8003738:	008011c4 	movi	r2,71
 800373c:	14053b0e 	bge	r2,r16,8004c2c <___vfprintf_internal_r+0x1a44>
 8003740:	00c20074 	movhi	r3,2049
 8003744:	18cc2404 	addi	r3,r3,12432
 8003748:	d8c13115 	stw	r3,1220(sp)
 800374c:	02c000c4 	movi	r11,3
 8003750:	00bfdfc4 	movi	r2,-129
 8003754:	dac12b15 	stw	r11,1196(sp)
 8003758:	88a2703a 	and	r17,r17,r2
 800375c:	dcc12d15 	stw	r19,1204(sp)
 8003760:	5825883a 	mov	r18,r11
 8003764:	d8013215 	stw	zero,1224(sp)
 8003768:	d8013415 	stw	zero,1232(sp)
 800376c:	00003206 	br	8003838 <___vfprintf_internal_r+0x650>
 8003770:	8c400214 	ori	r17,r17,8
 8003774:	1805883a 	mov	r2,r3
 8003778:	1c000007 	ldb	r16,0(r3)
 800377c:	003f0106 	br	8003384 <__alt_data_end+0xfc003384>
 8003780:	8c400414 	ori	r17,r17,16
 8003784:	d8c12a15 	stw	r3,1192(sp)
 8003788:	88c0080c 	andi	r3,r17,32
 800378c:	d8812d17 	ldw	r2,1204(sp)
 8003790:	18017726 	beq	r3,zero,8003d70 <___vfprintf_internal_r+0xb88>
 8003794:	db012d17 	ldw	r12,1204(sp)
 8003798:	14c00017 	ldw	r19,0(r2)
 800379c:	17000117 	ldw	fp,4(r2)
 80037a0:	63000204 	addi	r12,r12,8
 80037a4:	db012d15 	stw	r12,1204(sp)
 80037a8:	0005883a 	mov	r2,zero
 80037ac:	9f06b03a 	or	r3,r19,fp
 80037b0:	d8012785 	stb	zero,1182(sp)
 80037b4:	da413215 	stw	r9,1224(sp)
 80037b8:	002b883a 	mov	r21,zero
 80037bc:	48000216 	blt	r9,zero,80037c8 <___vfprintf_internal_r+0x5e0>
 80037c0:	013fdfc4 	movi	r4,-129
 80037c4:	8922703a 	and	r17,r17,r4
 80037c8:	1801ed1e 	bne	r3,zero,8003f80 <___vfprintf_internal_r+0xd98>
 80037cc:	4802e026 	beq	r9,zero,8004350 <___vfprintf_internal_r+0x1168>
 80037d0:	10803fcc 	andi	r2,r2,255
 80037d4:	00c00044 	movi	r3,1
 80037d8:	10c20f26 	beq	r2,r3,8004018 <___vfprintf_internal_r+0xe30>
 80037dc:	00c00084 	movi	r3,2
 80037e0:	10c2fd26 	beq	r2,r3,80043d8 <___vfprintf_internal_r+0x11f0>
 80037e4:	d8c10e04 	addi	r3,sp,1080
 80037e8:	9808d0fa 	srli	r4,r19,3
 80037ec:	e00a977a 	slli	r5,fp,29
 80037f0:	e038d0fa 	srli	fp,fp,3
 80037f4:	9cc001cc 	andi	r19,r19,7
 80037f8:	98800c04 	addi	r2,r19,48
 80037fc:	18ffffc4 	addi	r3,r3,-1
 8003800:	2926b03a 	or	r19,r5,r4
 8003804:	18800005 	stb	r2,0(r3)
 8003808:	9f08b03a 	or	r4,r19,fp
 800380c:	203ff61e 	bne	r4,zero,80037e8 <__alt_data_end+0xfc0037e8>
 8003810:	8900004c 	andi	r4,r17,1
 8003814:	d8c13115 	stw	r3,1220(sp)
 8003818:	2003791e 	bne	r4,zero,8004600 <___vfprintf_internal_r+0x1418>
 800381c:	dac12817 	ldw	r11,1184(sp)
 8003820:	58e5c83a 	sub	r18,r11,r3
 8003824:	9005883a 	mov	r2,r18
 8003828:	9240010e 	bge	r18,r9,8003830 <___vfprintf_internal_r+0x648>
 800382c:	4805883a 	mov	r2,r9
 8003830:	d8812b15 	stw	r2,1196(sp)
 8003834:	d8013415 	stw	zero,1232(sp)
 8003838:	a8803fcc 	andi	r2,r21,255
 800383c:	1080201c 	xori	r2,r2,128
 8003840:	10bfe004 	addi	r2,r2,-128
 8003844:	10000326 	beq	r2,zero,8003854 <___vfprintf_internal_r+0x66c>
 8003848:	db012b17 	ldw	r12,1196(sp)
 800384c:	63000044 	addi	r12,r12,1
 8003850:	db012b15 	stw	r12,1196(sp)
 8003854:	88c0008c 	andi	r3,r17,2
 8003858:	d8c12c15 	stw	r3,1200(sp)
 800385c:	18000326 	beq	r3,zero,800386c <___vfprintf_internal_r+0x684>
 8003860:	dac12b17 	ldw	r11,1196(sp)
 8003864:	5ac00084 	addi	r11,r11,2
 8003868:	dac12b15 	stw	r11,1196(sp)
 800386c:	8b00210c 	andi	r12,r17,132
 8003870:	db013015 	stw	r12,1216(sp)
 8003874:	6001c01e 	bne	r12,zero,8003f78 <___vfprintf_internal_r+0xd90>
 8003878:	dac12e17 	ldw	r11,1208(sp)
 800387c:	db012b17 	ldw	r12,1196(sp)
 8003880:	5b39c83a 	sub	fp,r11,r12
 8003884:	0701bc0e 	bge	zero,fp,8003f78 <___vfprintf_internal_r+0xd90>
 8003888:	02400404 	movi	r9,16
 800388c:	d8c12017 	ldw	r3,1152(sp)
 8003890:	d8811f17 	ldw	r2,1148(sp)
 8003894:	4f05220e 	bge	r9,fp,8004d20 <___vfprintf_internal_r+0x1b38>
 8003898:	01420074 	movhi	r5,2049
 800389c:	294c3f84 	addi	r5,r5,12542
 80038a0:	d9413615 	stw	r5,1240(sp)
 80038a4:	482b883a 	mov	r21,r9
 80038a8:	04c001c4 	movi	r19,7
 80038ac:	00000306 	br	80038bc <___vfprintf_internal_r+0x6d4>
 80038b0:	e73ffc04 	addi	fp,fp,-16
 80038b4:	42000204 	addi	r8,r8,8
 80038b8:	af00130e 	bge	r21,fp,8003908 <___vfprintf_internal_r+0x720>
 80038bc:	02c20074 	movhi	r11,2049
 80038c0:	18c00404 	addi	r3,r3,16
 80038c4:	10800044 	addi	r2,r2,1
 80038c8:	5acc3f84 	addi	r11,r11,12542
 80038cc:	42c00015 	stw	r11,0(r8)
 80038d0:	45400115 	stw	r21,4(r8)
 80038d4:	d8c12015 	stw	r3,1152(sp)
 80038d8:	d8811f15 	stw	r2,1148(sp)
 80038dc:	98bff40e 	bge	r19,r2,80038b0 <__alt_data_end+0xfc0038b0>
 80038e0:	b009883a 	mov	r4,r22
 80038e4:	b80b883a 	mov	r5,r23
 80038e8:	d9811e04 	addi	r6,sp,1144
 80038ec:	800acc00 	call	800acc0 <__sprint_r>
 80038f0:	103f541e 	bne	r2,zero,8003644 <__alt_data_end+0xfc003644>
 80038f4:	e73ffc04 	addi	fp,fp,-16
 80038f8:	d8c12017 	ldw	r3,1152(sp)
 80038fc:	d8811f17 	ldw	r2,1148(sp)
 8003900:	da000404 	addi	r8,sp,16
 8003904:	af3fed16 	blt	r21,fp,80038bc <__alt_data_end+0xfc0038bc>
 8003908:	db013617 	ldw	r12,1240(sp)
 800390c:	e0c7883a 	add	r3,fp,r3
 8003910:	10800044 	addi	r2,r2,1
 8003914:	43000015 	stw	r12,0(r8)
 8003918:	47000115 	stw	fp,4(r8)
 800391c:	d8c12015 	stw	r3,1152(sp)
 8003920:	d8811f15 	stw	r2,1148(sp)
 8003924:	010001c4 	movi	r4,7
 8003928:	2082f416 	blt	r4,r2,80044fc <___vfprintf_internal_r+0x1314>
 800392c:	d8812787 	ldb	r2,1182(sp)
 8003930:	42000204 	addi	r8,r8,8
 8003934:	10000c26 	beq	r2,zero,8003968 <___vfprintf_internal_r+0x780>
 8003938:	d8811f17 	ldw	r2,1148(sp)
 800393c:	d9012784 	addi	r4,sp,1182
 8003940:	18c00044 	addi	r3,r3,1
 8003944:	10800044 	addi	r2,r2,1
 8003948:	41000015 	stw	r4,0(r8)
 800394c:	01000044 	movi	r4,1
 8003950:	41000115 	stw	r4,4(r8)
 8003954:	d8c12015 	stw	r3,1152(sp)
 8003958:	d8811f15 	stw	r2,1148(sp)
 800395c:	010001c4 	movi	r4,7
 8003960:	20828d16 	blt	r4,r2,8004398 <___vfprintf_internal_r+0x11b0>
 8003964:	42000204 	addi	r8,r8,8
 8003968:	dac12c17 	ldw	r11,1200(sp)
 800396c:	58000c26 	beq	r11,zero,80039a0 <___vfprintf_internal_r+0x7b8>
 8003970:	d8811f17 	ldw	r2,1148(sp)
 8003974:	d9012704 	addi	r4,sp,1180
 8003978:	18c00084 	addi	r3,r3,2
 800397c:	10800044 	addi	r2,r2,1
 8003980:	41000015 	stw	r4,0(r8)
 8003984:	01000084 	movi	r4,2
 8003988:	41000115 	stw	r4,4(r8)
 800398c:	d8c12015 	stw	r3,1152(sp)
 8003990:	d8811f15 	stw	r2,1148(sp)
 8003994:	010001c4 	movi	r4,7
 8003998:	20828716 	blt	r4,r2,80043b8 <___vfprintf_internal_r+0x11d0>
 800399c:	42000204 	addi	r8,r8,8
 80039a0:	db013017 	ldw	r12,1216(sp)
 80039a4:	00802004 	movi	r2,128
 80039a8:	6081e926 	beq	r12,r2,8004150 <___vfprintf_internal_r+0xf68>
 80039ac:	db013217 	ldw	r12,1224(sp)
 80039b0:	64abc83a 	sub	r21,r12,r18
 80039b4:	0540260e 	bge	zero,r21,8003a50 <___vfprintf_internal_r+0x868>
 80039b8:	07000404 	movi	fp,16
 80039bc:	d8811f17 	ldw	r2,1148(sp)
 80039c0:	e5443d0e 	bge	fp,r21,8004ab8 <___vfprintf_internal_r+0x18d0>
 80039c4:	01420074 	movhi	r5,2049
 80039c8:	294c3b84 	addi	r5,r5,12526
 80039cc:	d9412c15 	stw	r5,1200(sp)
 80039d0:	04c001c4 	movi	r19,7
 80039d4:	00000306 	br	80039e4 <___vfprintf_internal_r+0x7fc>
 80039d8:	ad7ffc04 	addi	r21,r21,-16
 80039dc:	42000204 	addi	r8,r8,8
 80039e0:	e540110e 	bge	fp,r21,8003a28 <___vfprintf_internal_r+0x840>
 80039e4:	18c00404 	addi	r3,r3,16
 80039e8:	10800044 	addi	r2,r2,1
 80039ec:	45000015 	stw	r20,0(r8)
 80039f0:	47000115 	stw	fp,4(r8)
 80039f4:	d8c12015 	stw	r3,1152(sp)
 80039f8:	d8811f15 	stw	r2,1148(sp)
 80039fc:	98bff60e 	bge	r19,r2,80039d8 <__alt_data_end+0xfc0039d8>
 8003a00:	b009883a 	mov	r4,r22
 8003a04:	b80b883a 	mov	r5,r23
 8003a08:	d9811e04 	addi	r6,sp,1144
 8003a0c:	800acc00 	call	800acc0 <__sprint_r>
 8003a10:	103f0c1e 	bne	r2,zero,8003644 <__alt_data_end+0xfc003644>
 8003a14:	ad7ffc04 	addi	r21,r21,-16
 8003a18:	d8c12017 	ldw	r3,1152(sp)
 8003a1c:	d8811f17 	ldw	r2,1148(sp)
 8003a20:	da000404 	addi	r8,sp,16
 8003a24:	e57fef16 	blt	fp,r21,80039e4 <__alt_data_end+0xfc0039e4>
 8003a28:	dac12c17 	ldw	r11,1200(sp)
 8003a2c:	1d47883a 	add	r3,r3,r21
 8003a30:	10800044 	addi	r2,r2,1
 8003a34:	42c00015 	stw	r11,0(r8)
 8003a38:	45400115 	stw	r21,4(r8)
 8003a3c:	d8c12015 	stw	r3,1152(sp)
 8003a40:	d8811f15 	stw	r2,1148(sp)
 8003a44:	010001c4 	movi	r4,7
 8003a48:	20824b16 	blt	r4,r2,8004378 <___vfprintf_internal_r+0x1190>
 8003a4c:	42000204 	addi	r8,r8,8
 8003a50:	8880400c 	andi	r2,r17,256
 8003a54:	1001761e 	bne	r2,zero,8004030 <___vfprintf_internal_r+0xe48>
 8003a58:	d8811f17 	ldw	r2,1148(sp)
 8003a5c:	db013117 	ldw	r12,1220(sp)
 8003a60:	1c87883a 	add	r3,r3,r18
 8003a64:	10800044 	addi	r2,r2,1
 8003a68:	43000015 	stw	r12,0(r8)
 8003a6c:	44800115 	stw	r18,4(r8)
 8003a70:	d8c12015 	stw	r3,1152(sp)
 8003a74:	d8811f15 	stw	r2,1148(sp)
 8003a78:	010001c4 	movi	r4,7
 8003a7c:	20822616 	blt	r4,r2,8004318 <___vfprintf_internal_r+0x1130>
 8003a80:	42000204 	addi	r8,r8,8
 8003a84:	8c40010c 	andi	r17,r17,4
 8003a88:	88003126 	beq	r17,zero,8003b50 <___vfprintf_internal_r+0x968>
 8003a8c:	db012e17 	ldw	r12,1208(sp)
 8003a90:	dac12b17 	ldw	r11,1196(sp)
 8003a94:	62e1c83a 	sub	r16,r12,r11
 8003a98:	04002d0e 	bge	zero,r16,8003b50 <___vfprintf_internal_r+0x968>
 8003a9c:	04400404 	movi	r17,16
 8003aa0:	d8811f17 	ldw	r2,1148(sp)
 8003aa4:	8c04df0e 	bge	r17,r16,8004e24 <___vfprintf_internal_r+0x1c3c>
 8003aa8:	01020074 	movhi	r4,2049
 8003aac:	210c3f84 	addi	r4,r4,12542
 8003ab0:	d9013615 	stw	r4,1240(sp)
 8003ab4:	048001c4 	movi	r18,7
 8003ab8:	00000306 	br	8003ac8 <___vfprintf_internal_r+0x8e0>
 8003abc:	843ffc04 	addi	r16,r16,-16
 8003ac0:	42000204 	addi	r8,r8,8
 8003ac4:	8c00130e 	bge	r17,r16,8003b14 <___vfprintf_internal_r+0x92c>
 8003ac8:	01420074 	movhi	r5,2049
 8003acc:	18c00404 	addi	r3,r3,16
 8003ad0:	10800044 	addi	r2,r2,1
 8003ad4:	294c3f84 	addi	r5,r5,12542
 8003ad8:	41400015 	stw	r5,0(r8)
 8003adc:	44400115 	stw	r17,4(r8)
 8003ae0:	d8c12015 	stw	r3,1152(sp)
 8003ae4:	d8811f15 	stw	r2,1148(sp)
 8003ae8:	90bff40e 	bge	r18,r2,8003abc <__alt_data_end+0xfc003abc>
 8003aec:	b009883a 	mov	r4,r22
 8003af0:	b80b883a 	mov	r5,r23
 8003af4:	d9811e04 	addi	r6,sp,1144
 8003af8:	800acc00 	call	800acc0 <__sprint_r>
 8003afc:	103ed11e 	bne	r2,zero,8003644 <__alt_data_end+0xfc003644>
 8003b00:	843ffc04 	addi	r16,r16,-16
 8003b04:	d8c12017 	ldw	r3,1152(sp)
 8003b08:	d8811f17 	ldw	r2,1148(sp)
 8003b0c:	da000404 	addi	r8,sp,16
 8003b10:	8c3fed16 	blt	r17,r16,8003ac8 <__alt_data_end+0xfc003ac8>
 8003b14:	dac13617 	ldw	r11,1240(sp)
 8003b18:	1c07883a 	add	r3,r3,r16
 8003b1c:	10800044 	addi	r2,r2,1
 8003b20:	42c00015 	stw	r11,0(r8)
 8003b24:	44000115 	stw	r16,4(r8)
 8003b28:	d8c12015 	stw	r3,1152(sp)
 8003b2c:	d8811f15 	stw	r2,1148(sp)
 8003b30:	010001c4 	movi	r4,7
 8003b34:	2080060e 	bge	r4,r2,8003b50 <___vfprintf_internal_r+0x968>
 8003b38:	b009883a 	mov	r4,r22
 8003b3c:	b80b883a 	mov	r5,r23
 8003b40:	d9811e04 	addi	r6,sp,1144
 8003b44:	800acc00 	call	800acc0 <__sprint_r>
 8003b48:	103ebe1e 	bne	r2,zero,8003644 <__alt_data_end+0xfc003644>
 8003b4c:	d8c12017 	ldw	r3,1152(sp)
 8003b50:	d8812b17 	ldw	r2,1196(sp)
 8003b54:	db012e17 	ldw	r12,1208(sp)
 8003b58:	1300010e 	bge	r2,r12,8003b60 <___vfprintf_internal_r+0x978>
 8003b5c:	6005883a 	mov	r2,r12
 8003b60:	dac12f17 	ldw	r11,1212(sp)
 8003b64:	5897883a 	add	r11,r11,r2
 8003b68:	dac12f15 	stw	r11,1212(sp)
 8003b6c:	1801f21e 	bne	r3,zero,8004338 <___vfprintf_internal_r+0x1150>
 8003b70:	d8011f15 	stw	zero,1148(sp)
 8003b74:	da000404 	addi	r8,sp,16
 8003b78:	003dd806 	br	80032dc <__alt_data_end+0xfc0032dc>
 8003b7c:	8c400414 	ori	r17,r17,16
 8003b80:	d8c12a15 	stw	r3,1192(sp)
 8003b84:	88c0080c 	andi	r3,r17,32
 8003b88:	d8812d17 	ldw	r2,1204(sp)
 8003b8c:	18004626 	beq	r3,zero,8003ca8 <___vfprintf_internal_r+0xac0>
 8003b90:	dac12d17 	ldw	r11,1204(sp)
 8003b94:	14c00017 	ldw	r19,0(r2)
 8003b98:	17000117 	ldw	fp,4(r2)
 8003b9c:	5ac00204 	addi	r11,r11,8
 8003ba0:	dac12d15 	stw	r11,1204(sp)
 8003ba4:	00800044 	movi	r2,1
 8003ba8:	9f06b03a 	or	r3,r19,fp
 8003bac:	003f0006 	br	80037b0 <__alt_data_end+0xfc0037b0>
 8003bb0:	1805883a 	mov	r2,r3
 8003bb4:	d8012e15 	stw	zero,1208(sp)
 8003bb8:	82fff404 	addi	r11,r16,-48
 8003bbc:	0019883a 	mov	r12,zero
 8003bc0:	14000007 	ldb	r16,0(r2)
 8003bc4:	630002a4 	muli	r12,r12,10
 8003bc8:	18c00044 	addi	r3,r3,1
 8003bcc:	1805883a 	mov	r2,r3
 8003bd0:	62d9883a 	add	r12,r12,r11
 8003bd4:	82fff404 	addi	r11,r16,-48
 8003bd8:	2afff92e 	bgeu	r5,r11,8003bc0 <__alt_data_end+0xfc003bc0>
 8003bdc:	db012e15 	stw	r12,1208(sp)
 8003be0:	003de906 	br	8003388 <__alt_data_end+0xfc003388>
 8003be4:	8c400414 	ori	r17,r17,16
 8003be8:	d8c12a15 	stw	r3,1192(sp)
 8003bec:	d9812785 	stb	r6,1182(sp)
 8003bf0:	8880080c 	andi	r2,r17,32
 8003bf4:	d8c12d17 	ldw	r3,1204(sp)
 8003bf8:	10007a26 	beq	r2,zero,8003de4 <___vfprintf_internal_r+0xbfc>
 8003bfc:	db012d17 	ldw	r12,1204(sp)
 8003c00:	18800117 	ldw	r2,4(r3)
 8003c04:	1cc00017 	ldw	r19,0(r3)
 8003c08:	63000204 	addi	r12,r12,8
 8003c0c:	db012d15 	stw	r12,1204(sp)
 8003c10:	1039883a 	mov	fp,r2
 8003c14:	10031016 	blt	r2,zero,8004858 <___vfprintf_internal_r+0x1670>
 8003c18:	dd412783 	ldbu	r21,1182(sp)
 8003c1c:	da413215 	stw	r9,1224(sp)
 8003c20:	00800044 	movi	r2,1
 8003c24:	9f06b03a 	or	r3,r19,fp
 8003c28:	003ee406 	br	80037bc <__alt_data_end+0xfc0037bc>
 8003c2c:	03020074 	movhi	r12,2049
 8003c30:	630c2704 	addi	r12,r12,12444
 8003c34:	d8c12a15 	stw	r3,1192(sp)
 8003c38:	d9812785 	stb	r6,1182(sp)
 8003c3c:	db013b15 	stw	r12,1260(sp)
 8003c40:	88c0080c 	andi	r3,r17,32
 8003c44:	d8812d17 	ldw	r2,1204(sp)
 8003c48:	18002b26 	beq	r3,zero,8003cf8 <___vfprintf_internal_r+0xb10>
 8003c4c:	dac12d17 	ldw	r11,1204(sp)
 8003c50:	14c00017 	ldw	r19,0(r2)
 8003c54:	17000117 	ldw	fp,4(r2)
 8003c58:	5ac00204 	addi	r11,r11,8
 8003c5c:	dac12d15 	stw	r11,1204(sp)
 8003c60:	8880004c 	andi	r2,r17,1
 8003c64:	10025b26 	beq	r2,zero,80045d4 <___vfprintf_internal_r+0x13ec>
 8003c68:	9f06b03a 	or	r3,r19,fp
 8003c6c:	18037026 	beq	r3,zero,8004a30 <___vfprintf_internal_r+0x1848>
 8003c70:	00800c04 	movi	r2,48
 8003c74:	d8812705 	stb	r2,1180(sp)
 8003c78:	dc012745 	stb	r16,1181(sp)
 8003c7c:	8c400094 	ori	r17,r17,2
 8003c80:	00800084 	movi	r2,2
 8003c84:	003eca06 	br	80037b0 <__alt_data_end+0xfc0037b0>
 8003c88:	8c400814 	ori	r17,r17,32
 8003c8c:	1805883a 	mov	r2,r3
 8003c90:	1c000007 	ldb	r16,0(r3)
 8003c94:	003dbb06 	br	8003384 <__alt_data_end+0xfc003384>
 8003c98:	d8c12a15 	stw	r3,1192(sp)
 8003c9c:	88c0080c 	andi	r3,r17,32
 8003ca0:	d8812d17 	ldw	r2,1204(sp)
 8003ca4:	183fba1e 	bne	r3,zero,8003b90 <__alt_data_end+0xfc003b90>
 8003ca8:	88c0040c 	andi	r3,r17,16
 8003cac:	18024c1e 	bne	r3,zero,80045e0 <___vfprintf_internal_r+0x13f8>
 8003cb0:	88c0100c 	andi	r3,r17,64
 8003cb4:	18024a26 	beq	r3,zero,80045e0 <___vfprintf_internal_r+0x13f8>
 8003cb8:	dac12d17 	ldw	r11,1204(sp)
 8003cbc:	14c0000b 	ldhu	r19,0(r2)
 8003cc0:	0039883a 	mov	fp,zero
 8003cc4:	5ac00104 	addi	r11,r11,4
 8003cc8:	dac12d15 	stw	r11,1204(sp)
 8003ccc:	00800044 	movi	r2,1
 8003cd0:	9807883a 	mov	r3,r19
 8003cd4:	003eb606 	br	80037b0 <__alt_data_end+0xfc0037b0>
 8003cd8:	00820074 	movhi	r2,2049
 8003cdc:	108c2c04 	addi	r2,r2,12464
 8003ce0:	d8c12a15 	stw	r3,1192(sp)
 8003ce4:	d8813b15 	stw	r2,1260(sp)
 8003ce8:	d9812785 	stb	r6,1182(sp)
 8003cec:	88c0080c 	andi	r3,r17,32
 8003cf0:	d8812d17 	ldw	r2,1204(sp)
 8003cf4:	183fd51e 	bne	r3,zero,8003c4c <__alt_data_end+0xfc003c4c>
 8003cf8:	88c0040c 	andi	r3,r17,16
 8003cfc:	18034126 	beq	r3,zero,8004a04 <___vfprintf_internal_r+0x181c>
 8003d00:	db012d17 	ldw	r12,1204(sp)
 8003d04:	14c00017 	ldw	r19,0(r2)
 8003d08:	0039883a 	mov	fp,zero
 8003d0c:	63000104 	addi	r12,r12,4
 8003d10:	db012d15 	stw	r12,1204(sp)
 8003d14:	003fd206 	br	8003c60 <__alt_data_end+0xfc003c60>
 8003d18:	1c000007 	ldb	r16,0(r3)
 8003d1c:	81c3d626 	beq	r16,r7,8004c78 <___vfprintf_internal_r+0x1a90>
 8003d20:	8c400414 	ori	r17,r17,16
 8003d24:	1805883a 	mov	r2,r3
 8003d28:	003d9606 	br	8003384 <__alt_data_end+0xfc003384>
 8003d2c:	d8c12a15 	stw	r3,1192(sp)
 8003d30:	d9812785 	stb	r6,1182(sp)
 8003d34:	8880080c 	andi	r2,r17,32
 8003d38:	10033f26 	beq	r2,zero,8004a38 <___vfprintf_internal_r+0x1850>
 8003d3c:	db012d17 	ldw	r12,1204(sp)
 8003d40:	dac12f17 	ldw	r11,1212(sp)
 8003d44:	60800017 	ldw	r2,0(r12)
 8003d48:	5807d7fa 	srai	r3,r11,31
 8003d4c:	63000104 	addi	r12,r12,4
 8003d50:	db012d15 	stw	r12,1204(sp)
 8003d54:	12c00015 	stw	r11,0(r2)
 8003d58:	10c00115 	stw	r3,4(r2)
 8003d5c:	003d5f06 	br	80032dc <__alt_data_end+0xfc0032dc>
 8003d60:	d8c12a15 	stw	r3,1192(sp)
 8003d64:	88c0080c 	andi	r3,r17,32
 8003d68:	d8812d17 	ldw	r2,1204(sp)
 8003d6c:	183e891e 	bne	r3,zero,8003794 <__alt_data_end+0xfc003794>
 8003d70:	88c0040c 	andi	r3,r17,16
 8003d74:	1801ea1e 	bne	r3,zero,8004520 <___vfprintf_internal_r+0x1338>
 8003d78:	88c0100c 	andi	r3,r17,64
 8003d7c:	1801e826 	beq	r3,zero,8004520 <___vfprintf_internal_r+0x1338>
 8003d80:	db012d17 	ldw	r12,1204(sp)
 8003d84:	14c0000b 	ldhu	r19,0(r2)
 8003d88:	0039883a 	mov	fp,zero
 8003d8c:	63000104 	addi	r12,r12,4
 8003d90:	db012d15 	stw	r12,1204(sp)
 8003d94:	0005883a 	mov	r2,zero
 8003d98:	9807883a 	mov	r3,r19
 8003d9c:	003e8406 	br	80037b0 <__alt_data_end+0xfc0037b0>
 8003da0:	30803fcc 	andi	r2,r6,255
 8003da4:	1080201c 	xori	r2,r2,128
 8003da8:	10bfe004 	addi	r2,r2,-128
 8003dac:	10031d1e 	bne	r2,zero,8004a24 <___vfprintf_internal_r+0x183c>
 8003db0:	1805883a 	mov	r2,r3
 8003db4:	01800804 	movi	r6,32
 8003db8:	1c000007 	ldb	r16,0(r3)
 8003dbc:	003d7106 	br	8003384 <__alt_data_end+0xfc003384>
 8003dc0:	8c400054 	ori	r17,r17,1
 8003dc4:	1805883a 	mov	r2,r3
 8003dc8:	1c000007 	ldb	r16,0(r3)
 8003dcc:	003d6d06 	br	8003384 <__alt_data_end+0xfc003384>
 8003dd0:	d8c12a15 	stw	r3,1192(sp)
 8003dd4:	d9812785 	stb	r6,1182(sp)
 8003dd8:	8880080c 	andi	r2,r17,32
 8003ddc:	d8c12d17 	ldw	r3,1204(sp)
 8003de0:	103f861e 	bne	r2,zero,8003bfc <__alt_data_end+0xfc003bfc>
 8003de4:	8880040c 	andi	r2,r17,16
 8003de8:	1001f31e 	bne	r2,zero,80045b8 <___vfprintf_internal_r+0x13d0>
 8003dec:	8880100c 	andi	r2,r17,64
 8003df0:	1001f126 	beq	r2,zero,80045b8 <___vfprintf_internal_r+0x13d0>
 8003df4:	1cc0000f 	ldh	r19,0(r3)
 8003df8:	db012d17 	ldw	r12,1204(sp)
 8003dfc:	9839d7fa 	srai	fp,r19,31
 8003e00:	63000104 	addi	r12,r12,4
 8003e04:	db012d15 	stw	r12,1204(sp)
 8003e08:	e005883a 	mov	r2,fp
 8003e0c:	003f8106 	br	8003c14 <__alt_data_end+0xfc003c14>
 8003e10:	8c401014 	ori	r17,r17,64
 8003e14:	1805883a 	mov	r2,r3
 8003e18:	1c000007 	ldb	r16,0(r3)
 8003e1c:	003d5906 	br	8003384 <__alt_data_end+0xfc003384>
 8003e20:	db012d17 	ldw	r12,1204(sp)
 8003e24:	d8c12a15 	stw	r3,1192(sp)
 8003e28:	00c00044 	movi	r3,1
 8003e2c:	60800017 	ldw	r2,0(r12)
 8003e30:	63000104 	addi	r12,r12,4
 8003e34:	d8c12b15 	stw	r3,1196(sp)
 8003e38:	d8012785 	stb	zero,1182(sp)
 8003e3c:	d8810405 	stb	r2,1040(sp)
 8003e40:	db012d15 	stw	r12,1204(sp)
 8003e44:	dac10404 	addi	r11,sp,1040
 8003e48:	1825883a 	mov	r18,r3
 8003e4c:	d8013215 	stw	zero,1224(sp)
 8003e50:	d8013415 	stw	zero,1232(sp)
 8003e54:	dac13115 	stw	r11,1220(sp)
 8003e58:	0005883a 	mov	r2,zero
 8003e5c:	003e7d06 	br	8003854 <__alt_data_end+0xfc003854>
 8003e60:	db012d17 	ldw	r12,1204(sp)
 8003e64:	00800c04 	movi	r2,48
 8003e68:	d8812705 	stb	r2,1180(sp)
 8003e6c:	64c00017 	ldw	r19,0(r12)
 8003e70:	00801e04 	movi	r2,120
 8003e74:	d8812745 	stb	r2,1181(sp)
 8003e78:	00820074 	movhi	r2,2049
 8003e7c:	108c2c04 	addi	r2,r2,12464
 8003e80:	63000104 	addi	r12,r12,4
 8003e84:	d8c12a15 	stw	r3,1192(sp)
 8003e88:	d8813b15 	stw	r2,1260(sp)
 8003e8c:	0039883a 	mov	fp,zero
 8003e90:	8c400094 	ori	r17,r17,2
 8003e94:	db012d15 	stw	r12,1204(sp)
 8003e98:	00800084 	movi	r2,2
 8003e9c:	04001e04 	movi	r16,120
 8003ea0:	9807883a 	mov	r3,r19
 8003ea4:	003e4206 	br	80037b0 <__alt_data_end+0xfc0037b0>
 8003ea8:	dac12d17 	ldw	r11,1204(sp)
 8003eac:	db012d17 	ldw	r12,1204(sp)
 8003eb0:	d8c12a15 	stw	r3,1192(sp)
 8003eb4:	5ac00017 	ldw	r11,0(r11)
 8003eb8:	d8012785 	stb	zero,1182(sp)
 8003ebc:	64c00104 	addi	r19,r12,4
 8003ec0:	dac13115 	stw	r11,1220(sp)
 8003ec4:	5803e826 	beq	r11,zero,8004e68 <___vfprintf_internal_r+0x1c80>
 8003ec8:	d9013117 	ldw	r4,1220(sp)
 8003ecc:	48037a16 	blt	r9,zero,8004cb8 <___vfprintf_internal_r+0x1ad0>
 8003ed0:	480d883a 	mov	r6,r9
 8003ed4:	000b883a 	mov	r5,zero
 8003ed8:	da013f15 	stw	r8,1276(sp)
 8003edc:	da413e15 	stw	r9,1272(sp)
 8003ee0:	800821c0 	call	800821c <memchr>
 8003ee4:	da013f17 	ldw	r8,1276(sp)
 8003ee8:	da413e17 	ldw	r9,1272(sp)
 8003eec:	10044426 	beq	r2,zero,8005000 <___vfprintf_internal_r+0x1e18>
 8003ef0:	d8c13117 	ldw	r3,1220(sp)
 8003ef4:	10e5c83a 	sub	r18,r2,r3
 8003ef8:	4c834416 	blt	r9,r18,8004c0c <___vfprintf_internal_r+0x1a24>
 8003efc:	9005883a 	mov	r2,r18
 8003f00:	90037216 	blt	r18,zero,8004ccc <___vfprintf_internal_r+0x1ae4>
 8003f04:	dd412783 	ldbu	r21,1182(sp)
 8003f08:	d8812b15 	stw	r2,1196(sp)
 8003f0c:	dcc12d15 	stw	r19,1204(sp)
 8003f10:	d8013215 	stw	zero,1224(sp)
 8003f14:	d8013415 	stw	zero,1232(sp)
 8003f18:	003e4706 	br	8003838 <__alt_data_end+0xfc003838>
 8003f1c:	dac12d17 	ldw	r11,1204(sp)
 8003f20:	db012d17 	ldw	r12,1204(sp)
 8003f24:	5ac00017 	ldw	r11,0(r11)
 8003f28:	dac12e15 	stw	r11,1208(sp)
 8003f2c:	62c00104 	addi	r11,r12,4
 8003f30:	db012e17 	ldw	r12,1208(sp)
 8003f34:	60034a16 	blt	r12,zero,8004c60 <___vfprintf_internal_r+0x1a78>
 8003f38:	dac12d15 	stw	r11,1204(sp)
 8003f3c:	1805883a 	mov	r2,r3
 8003f40:	1c000007 	ldb	r16,0(r3)
 8003f44:	003d0f06 	br	8003384 <__alt_data_end+0xfc003384>
 8003f48:	1805883a 	mov	r2,r3
 8003f4c:	01800ac4 	movi	r6,43
 8003f50:	1c000007 	ldb	r16,0(r3)
 8003f54:	003d0b06 	br	8003384 <__alt_data_end+0xfc003384>
 8003f58:	d8c12a15 	stw	r3,1192(sp)
 8003f5c:	d9812785 	stb	r6,1182(sp)
 8003f60:	803db226 	beq	r16,zero,800362c <__alt_data_end+0xfc00362c>
 8003f64:	00c00044 	movi	r3,1
 8003f68:	d8c12b15 	stw	r3,1196(sp)
 8003f6c:	dc010405 	stb	r16,1040(sp)
 8003f70:	d8012785 	stb	zero,1182(sp)
 8003f74:	003fb306 	br	8003e44 <__alt_data_end+0xfc003e44>
 8003f78:	d8c12017 	ldw	r3,1152(sp)
 8003f7c:	003e6d06 	br	8003934 <__alt_data_end+0xfc003934>
 8003f80:	10803fcc 	andi	r2,r2,255
 8003f84:	00c00044 	movi	r3,1
 8003f88:	10fe141e 	bne	r2,r3,80037dc <__alt_data_end+0xfc0037dc>
 8003f8c:	e000021e 	bne	fp,zero,8003f98 <___vfprintf_internal_r+0xdb0>
 8003f90:	00800244 	movi	r2,9
 8003f94:	14c0202e 	bgeu	r2,r19,8004018 <___vfprintf_internal_r+0xe30>
 8003f98:	dc012b15 	stw	r16,1196(sp)
 8003f9c:	dc412c15 	stw	r17,1200(sp)
 8003fa0:	9821883a 	mov	r16,r19
 8003fa4:	e023883a 	mov	r17,fp
 8003fa8:	dc810e04 	addi	r18,sp,1080
 8003fac:	4027883a 	mov	r19,r8
 8003fb0:	4839883a 	mov	fp,r9
 8003fb4:	8009883a 	mov	r4,r16
 8003fb8:	880b883a 	mov	r5,r17
 8003fbc:	01800284 	movi	r6,10
 8003fc0:	000f883a 	mov	r7,zero
 8003fc4:	800daf00 	call	800daf0 <__umoddi3>
 8003fc8:	10800c04 	addi	r2,r2,48
 8003fcc:	94bfffc4 	addi	r18,r18,-1
 8003fd0:	8009883a 	mov	r4,r16
 8003fd4:	880b883a 	mov	r5,r17
 8003fd8:	01800284 	movi	r6,10
 8003fdc:	000f883a 	mov	r7,zero
 8003fe0:	90800005 	stb	r2,0(r18)
 8003fe4:	800d5300 	call	800d530 <__udivdi3>
 8003fe8:	1021883a 	mov	r16,r2
 8003fec:	10c4b03a 	or	r2,r2,r3
 8003ff0:	1823883a 	mov	r17,r3
 8003ff4:	103fef1e 	bne	r2,zero,8003fb4 <__alt_data_end+0xfc003fb4>
 8003ff8:	dac12817 	ldw	r11,1184(sp)
 8003ffc:	dc813115 	stw	r18,1220(sp)
 8004000:	dc012b17 	ldw	r16,1196(sp)
 8004004:	9811883a 	mov	r8,r19
 8004008:	dc412c17 	ldw	r17,1200(sp)
 800400c:	e013883a 	mov	r9,fp
 8004010:	5ca5c83a 	sub	r18,r11,r18
 8004014:	003e0306 	br	8003824 <__alt_data_end+0xfc003824>
 8004018:	9cc00c04 	addi	r19,r19,48
 800401c:	d8c10dc4 	addi	r3,sp,1079
 8004020:	dcc10dc5 	stb	r19,1079(sp)
 8004024:	dc813c17 	ldw	r18,1264(sp)
 8004028:	d8c13115 	stw	r3,1220(sp)
 800402c:	003dfd06 	br	8003824 <__alt_data_end+0xfc003824>
 8004030:	00801944 	movi	r2,101
 8004034:	1400710e 	bge	r2,r16,80041fc <___vfprintf_internal_r+0x1014>
 8004038:	d9013717 	ldw	r4,1244(sp)
 800403c:	d9413917 	ldw	r5,1252(sp)
 8004040:	000d883a 	mov	r6,zero
 8004044:	000f883a 	mov	r7,zero
 8004048:	d8c13d15 	stw	r3,1268(sp)
 800404c:	da013f15 	stw	r8,1276(sp)
 8004050:	800f3140 	call	800f314 <__eqdf2>
 8004054:	d8c13d17 	ldw	r3,1268(sp)
 8004058:	da013f17 	ldw	r8,1276(sp)
 800405c:	1000ef1e 	bne	r2,zero,800441c <___vfprintf_internal_r+0x1234>
 8004060:	d8811f17 	ldw	r2,1148(sp)
 8004064:	01020074 	movhi	r4,2049
 8004068:	210c3304 	addi	r4,r4,12492
 800406c:	18c00044 	addi	r3,r3,1
 8004070:	10800044 	addi	r2,r2,1
 8004074:	41000015 	stw	r4,0(r8)
 8004078:	01000044 	movi	r4,1
 800407c:	41000115 	stw	r4,4(r8)
 8004080:	d8c12015 	stw	r3,1152(sp)
 8004084:	d8811f15 	stw	r2,1148(sp)
 8004088:	010001c4 	movi	r4,7
 800408c:	20828e16 	blt	r4,r2,8004ac8 <___vfprintf_internal_r+0x18e0>
 8004090:	42000204 	addi	r8,r8,8
 8004094:	d8812617 	ldw	r2,1176(sp)
 8004098:	dac13317 	ldw	r11,1228(sp)
 800409c:	12c00216 	blt	r2,r11,80040a8 <___vfprintf_internal_r+0xec0>
 80040a0:	8880004c 	andi	r2,r17,1
 80040a4:	103e7726 	beq	r2,zero,8003a84 <__alt_data_end+0xfc003a84>
 80040a8:	db013817 	ldw	r12,1248(sp)
 80040ac:	d8811f17 	ldw	r2,1148(sp)
 80040b0:	dac13517 	ldw	r11,1236(sp)
 80040b4:	1b07883a 	add	r3,r3,r12
 80040b8:	10800044 	addi	r2,r2,1
 80040bc:	42c00015 	stw	r11,0(r8)
 80040c0:	43000115 	stw	r12,4(r8)
 80040c4:	d8c12015 	stw	r3,1152(sp)
 80040c8:	d8811f15 	stw	r2,1148(sp)
 80040cc:	010001c4 	movi	r4,7
 80040d0:	2082ed16 	blt	r4,r2,8004c88 <___vfprintf_internal_r+0x1aa0>
 80040d4:	42000204 	addi	r8,r8,8
 80040d8:	db013317 	ldw	r12,1228(sp)
 80040dc:	643fffc4 	addi	r16,r12,-1
 80040e0:	043e680e 	bge	zero,r16,8003a84 <__alt_data_end+0xfc003a84>
 80040e4:	04800404 	movi	r18,16
 80040e8:	d8811f17 	ldw	r2,1148(sp)
 80040ec:	94007e0e 	bge	r18,r16,80042e8 <___vfprintf_internal_r+0x1100>
 80040f0:	01420074 	movhi	r5,2049
 80040f4:	294c3b84 	addi	r5,r5,12526
 80040f8:	d9412c15 	stw	r5,1200(sp)
 80040fc:	054001c4 	movi	r21,7
 8004100:	00000306 	br	8004110 <___vfprintf_internal_r+0xf28>
 8004104:	42000204 	addi	r8,r8,8
 8004108:	843ffc04 	addi	r16,r16,-16
 800410c:	9400790e 	bge	r18,r16,80042f4 <___vfprintf_internal_r+0x110c>
 8004110:	18c00404 	addi	r3,r3,16
 8004114:	10800044 	addi	r2,r2,1
 8004118:	45000015 	stw	r20,0(r8)
 800411c:	44800115 	stw	r18,4(r8)
 8004120:	d8c12015 	stw	r3,1152(sp)
 8004124:	d8811f15 	stw	r2,1148(sp)
 8004128:	a8bff60e 	bge	r21,r2,8004104 <__alt_data_end+0xfc004104>
 800412c:	b009883a 	mov	r4,r22
 8004130:	b80b883a 	mov	r5,r23
 8004134:	d9811e04 	addi	r6,sp,1144
 8004138:	800acc00 	call	800acc0 <__sprint_r>
 800413c:	103d411e 	bne	r2,zero,8003644 <__alt_data_end+0xfc003644>
 8004140:	d8c12017 	ldw	r3,1152(sp)
 8004144:	d8811f17 	ldw	r2,1148(sp)
 8004148:	da000404 	addi	r8,sp,16
 800414c:	003fee06 	br	8004108 <__alt_data_end+0xfc004108>
 8004150:	dac12e17 	ldw	r11,1208(sp)
 8004154:	db012b17 	ldw	r12,1196(sp)
 8004158:	5b2bc83a 	sub	r21,r11,r12
 800415c:	057e130e 	bge	zero,r21,80039ac <__alt_data_end+0xfc0039ac>
 8004160:	07000404 	movi	fp,16
 8004164:	d8811f17 	ldw	r2,1148(sp)
 8004168:	e543640e 	bge	fp,r21,8004efc <___vfprintf_internal_r+0x1d14>
 800416c:	01420074 	movhi	r5,2049
 8004170:	294c3b84 	addi	r5,r5,12526
 8004174:	d9412c15 	stw	r5,1200(sp)
 8004178:	04c001c4 	movi	r19,7
 800417c:	00000306 	br	800418c <___vfprintf_internal_r+0xfa4>
 8004180:	ad7ffc04 	addi	r21,r21,-16
 8004184:	42000204 	addi	r8,r8,8
 8004188:	e540110e 	bge	fp,r21,80041d0 <___vfprintf_internal_r+0xfe8>
 800418c:	18c00404 	addi	r3,r3,16
 8004190:	10800044 	addi	r2,r2,1
 8004194:	45000015 	stw	r20,0(r8)
 8004198:	47000115 	stw	fp,4(r8)
 800419c:	d8c12015 	stw	r3,1152(sp)
 80041a0:	d8811f15 	stw	r2,1148(sp)
 80041a4:	98bff60e 	bge	r19,r2,8004180 <__alt_data_end+0xfc004180>
 80041a8:	b009883a 	mov	r4,r22
 80041ac:	b80b883a 	mov	r5,r23
 80041b0:	d9811e04 	addi	r6,sp,1144
 80041b4:	800acc00 	call	800acc0 <__sprint_r>
 80041b8:	103d221e 	bne	r2,zero,8003644 <__alt_data_end+0xfc003644>
 80041bc:	ad7ffc04 	addi	r21,r21,-16
 80041c0:	d8c12017 	ldw	r3,1152(sp)
 80041c4:	d8811f17 	ldw	r2,1148(sp)
 80041c8:	da000404 	addi	r8,sp,16
 80041cc:	e57fef16 	blt	fp,r21,800418c <__alt_data_end+0xfc00418c>
 80041d0:	dac12c17 	ldw	r11,1200(sp)
 80041d4:	1d47883a 	add	r3,r3,r21
 80041d8:	10800044 	addi	r2,r2,1
 80041dc:	42c00015 	stw	r11,0(r8)
 80041e0:	45400115 	stw	r21,4(r8)
 80041e4:	d8c12015 	stw	r3,1152(sp)
 80041e8:	d8811f15 	stw	r2,1148(sp)
 80041ec:	010001c4 	movi	r4,7
 80041f0:	20819116 	blt	r4,r2,8004838 <___vfprintf_internal_r+0x1650>
 80041f4:	42000204 	addi	r8,r8,8
 80041f8:	003dec06 	br	80039ac <__alt_data_end+0xfc0039ac>
 80041fc:	db013317 	ldw	r12,1228(sp)
 8004200:	00800044 	movi	r2,1
 8004204:	18c00044 	addi	r3,r3,1
 8004208:	1301530e 	bge	r2,r12,8004758 <___vfprintf_internal_r+0x1570>
 800420c:	dc011f17 	ldw	r16,1148(sp)
 8004210:	dac13117 	ldw	r11,1220(sp)
 8004214:	00800044 	movi	r2,1
 8004218:	84000044 	addi	r16,r16,1
 800421c:	40800115 	stw	r2,4(r8)
 8004220:	42c00015 	stw	r11,0(r8)
 8004224:	d8c12015 	stw	r3,1152(sp)
 8004228:	dc011f15 	stw	r16,1148(sp)
 800422c:	008001c4 	movi	r2,7
 8004230:	14016b16 	blt	r2,r16,80047e0 <___vfprintf_internal_r+0x15f8>
 8004234:	42000204 	addi	r8,r8,8
 8004238:	db013817 	ldw	r12,1248(sp)
 800423c:	dac13517 	ldw	r11,1236(sp)
 8004240:	84000044 	addi	r16,r16,1
 8004244:	1b07883a 	add	r3,r3,r12
 8004248:	42c00015 	stw	r11,0(r8)
 800424c:	43000115 	stw	r12,4(r8)
 8004250:	d8c12015 	stw	r3,1152(sp)
 8004254:	dc011f15 	stw	r16,1148(sp)
 8004258:	008001c4 	movi	r2,7
 800425c:	14016916 	blt	r2,r16,8004804 <___vfprintf_internal_r+0x161c>
 8004260:	44800204 	addi	r18,r8,8
 8004264:	d9013717 	ldw	r4,1244(sp)
 8004268:	d9413917 	ldw	r5,1252(sp)
 800426c:	000d883a 	mov	r6,zero
 8004270:	000f883a 	mov	r7,zero
 8004274:	d8c13d15 	stw	r3,1268(sp)
 8004278:	800f3140 	call	800f314 <__eqdf2>
 800427c:	d8c13d17 	ldw	r3,1268(sp)
 8004280:	db013317 	ldw	r12,1228(sp)
 8004284:	1000ae26 	beq	r2,zero,8004540 <___vfprintf_internal_r+0x1358>
 8004288:	dac13117 	ldw	r11,1220(sp)
 800428c:	60bfffc4 	addi	r2,r12,-1
 8004290:	1887883a 	add	r3,r3,r2
 8004294:	59000044 	addi	r4,r11,1
 8004298:	84000044 	addi	r16,r16,1
 800429c:	90800115 	stw	r2,4(r18)
 80042a0:	91000015 	stw	r4,0(r18)
 80042a4:	d8c12015 	stw	r3,1152(sp)
 80042a8:	dc011f15 	stw	r16,1148(sp)
 80042ac:	008001c4 	movi	r2,7
 80042b0:	14014216 	blt	r2,r16,80047bc <___vfprintf_internal_r+0x15d4>
 80042b4:	94800204 	addi	r18,r18,8
 80042b8:	dac13a17 	ldw	r11,1256(sp)
 80042bc:	dd4122c4 	addi	r21,sp,1163
 80042c0:	84000044 	addi	r16,r16,1
 80042c4:	58c7883a 	add	r3,r11,r3
 80042c8:	95400015 	stw	r21,0(r18)
 80042cc:	92c00115 	stw	r11,4(r18)
 80042d0:	d8c12015 	stw	r3,1152(sp)
 80042d4:	dc011f15 	stw	r16,1148(sp)
 80042d8:	008001c4 	movi	r2,7
 80042dc:	14000e16 	blt	r2,r16,8004318 <___vfprintf_internal_r+0x1130>
 80042e0:	92000204 	addi	r8,r18,8
 80042e4:	003de706 	br	8003a84 <__alt_data_end+0xfc003a84>
 80042e8:	01020074 	movhi	r4,2049
 80042ec:	210c3b84 	addi	r4,r4,12526
 80042f0:	d9012c15 	stw	r4,1200(sp)
 80042f4:	dac12c17 	ldw	r11,1200(sp)
 80042f8:	1c07883a 	add	r3,r3,r16
 80042fc:	44000115 	stw	r16,4(r8)
 8004300:	42c00015 	stw	r11,0(r8)
 8004304:	10800044 	addi	r2,r2,1
 8004308:	d8c12015 	stw	r3,1152(sp)
 800430c:	d8811f15 	stw	r2,1148(sp)
 8004310:	010001c4 	movi	r4,7
 8004314:	20bdda0e 	bge	r4,r2,8003a80 <__alt_data_end+0xfc003a80>
 8004318:	b009883a 	mov	r4,r22
 800431c:	b80b883a 	mov	r5,r23
 8004320:	d9811e04 	addi	r6,sp,1144
 8004324:	800acc00 	call	800acc0 <__sprint_r>
 8004328:	103cc61e 	bne	r2,zero,8003644 <__alt_data_end+0xfc003644>
 800432c:	d8c12017 	ldw	r3,1152(sp)
 8004330:	da000404 	addi	r8,sp,16
 8004334:	003dd306 	br	8003a84 <__alt_data_end+0xfc003a84>
 8004338:	b009883a 	mov	r4,r22
 800433c:	b80b883a 	mov	r5,r23
 8004340:	d9811e04 	addi	r6,sp,1144
 8004344:	800acc00 	call	800acc0 <__sprint_r>
 8004348:	103e0926 	beq	r2,zero,8003b70 <__alt_data_end+0xfc003b70>
 800434c:	003cbd06 	br	8003644 <__alt_data_end+0xfc003644>
 8004350:	10803fcc 	andi	r2,r2,255
 8004354:	1000651e 	bne	r2,zero,80044ec <___vfprintf_internal_r+0x1304>
 8004358:	8880004c 	andi	r2,r17,1
 800435c:	10013226 	beq	r2,zero,8004828 <___vfprintf_internal_r+0x1640>
 8004360:	00800c04 	movi	r2,48
 8004364:	d8c10dc4 	addi	r3,sp,1079
 8004368:	d8810dc5 	stb	r2,1079(sp)
 800436c:	dc813c17 	ldw	r18,1264(sp)
 8004370:	d8c13115 	stw	r3,1220(sp)
 8004374:	003d2b06 	br	8003824 <__alt_data_end+0xfc003824>
 8004378:	b009883a 	mov	r4,r22
 800437c:	b80b883a 	mov	r5,r23
 8004380:	d9811e04 	addi	r6,sp,1144
 8004384:	800acc00 	call	800acc0 <__sprint_r>
 8004388:	103cae1e 	bne	r2,zero,8003644 <__alt_data_end+0xfc003644>
 800438c:	d8c12017 	ldw	r3,1152(sp)
 8004390:	da000404 	addi	r8,sp,16
 8004394:	003dae06 	br	8003a50 <__alt_data_end+0xfc003a50>
 8004398:	b009883a 	mov	r4,r22
 800439c:	b80b883a 	mov	r5,r23
 80043a0:	d9811e04 	addi	r6,sp,1144
 80043a4:	800acc00 	call	800acc0 <__sprint_r>
 80043a8:	103ca61e 	bne	r2,zero,8003644 <__alt_data_end+0xfc003644>
 80043ac:	d8c12017 	ldw	r3,1152(sp)
 80043b0:	da000404 	addi	r8,sp,16
 80043b4:	003d6c06 	br	8003968 <__alt_data_end+0xfc003968>
 80043b8:	b009883a 	mov	r4,r22
 80043bc:	b80b883a 	mov	r5,r23
 80043c0:	d9811e04 	addi	r6,sp,1144
 80043c4:	800acc00 	call	800acc0 <__sprint_r>
 80043c8:	103c9e1e 	bne	r2,zero,8003644 <__alt_data_end+0xfc003644>
 80043cc:	d8c12017 	ldw	r3,1152(sp)
 80043d0:	da000404 	addi	r8,sp,16
 80043d4:	003d7206 	br	80039a0 <__alt_data_end+0xfc0039a0>
 80043d8:	d9413b17 	ldw	r5,1260(sp)
 80043dc:	d8c10e04 	addi	r3,sp,1080
 80043e0:	988003cc 	andi	r2,r19,15
 80043e4:	e008973a 	slli	r4,fp,28
 80043e8:	2885883a 	add	r2,r5,r2
 80043ec:	9826d13a 	srli	r19,r19,4
 80043f0:	10800003 	ldbu	r2,0(r2)
 80043f4:	e038d13a 	srli	fp,fp,4
 80043f8:	18ffffc4 	addi	r3,r3,-1
 80043fc:	24e6b03a 	or	r19,r4,r19
 8004400:	18800005 	stb	r2,0(r3)
 8004404:	9f04b03a 	or	r2,r19,fp
 8004408:	103ff51e 	bne	r2,zero,80043e0 <__alt_data_end+0xfc0043e0>
 800440c:	db012817 	ldw	r12,1184(sp)
 8004410:	d8c13115 	stw	r3,1220(sp)
 8004414:	60e5c83a 	sub	r18,r12,r3
 8004418:	003d0206 	br	8003824 <__alt_data_end+0xfc003824>
 800441c:	dc012617 	ldw	r16,1176(sp)
 8004420:	0401b10e 	bge	zero,r16,8004ae8 <___vfprintf_internal_r+0x1900>
 8004424:	db013117 	ldw	r12,1220(sp)
 8004428:	dac13317 	ldw	r11,1228(sp)
 800442c:	62e1883a 	add	r16,r12,r11
 8004430:	db013417 	ldw	r12,1232(sp)
 8004434:	5825883a 	mov	r18,r11
 8004438:	62c0010e 	bge	r12,r11,8004440 <___vfprintf_internal_r+0x1258>
 800443c:	6025883a 	mov	r18,r12
 8004440:	04800b0e 	bge	zero,r18,8004470 <___vfprintf_internal_r+0x1288>
 8004444:	d8811f17 	ldw	r2,1148(sp)
 8004448:	dac13117 	ldw	r11,1220(sp)
 800444c:	1c87883a 	add	r3,r3,r18
 8004450:	10800044 	addi	r2,r2,1
 8004454:	42c00015 	stw	r11,0(r8)
 8004458:	44800115 	stw	r18,4(r8)
 800445c:	d8c12015 	stw	r3,1152(sp)
 8004460:	d8811f15 	stw	r2,1148(sp)
 8004464:	010001c4 	movi	r4,7
 8004468:	20824f16 	blt	r4,r2,8004da8 <___vfprintf_internal_r+0x1bc0>
 800446c:	42000204 	addi	r8,r8,8
 8004470:	90024b16 	blt	r18,zero,8004da0 <___vfprintf_internal_r+0x1bb8>
 8004474:	db013417 	ldw	r12,1232(sp)
 8004478:	64a5c83a 	sub	r18,r12,r18
 800447c:	0480730e 	bge	zero,r18,800464c <___vfprintf_internal_r+0x1464>
 8004480:	05400404 	movi	r21,16
 8004484:	d8811f17 	ldw	r2,1148(sp)
 8004488:	ac817d0e 	bge	r21,r18,8004a80 <___vfprintf_internal_r+0x1898>
 800448c:	01420074 	movhi	r5,2049
 8004490:	294c3b84 	addi	r5,r5,12526
 8004494:	d9412c15 	stw	r5,1200(sp)
 8004498:	070001c4 	movi	fp,7
 800449c:	00000306 	br	80044ac <___vfprintf_internal_r+0x12c4>
 80044a0:	42000204 	addi	r8,r8,8
 80044a4:	94bffc04 	addi	r18,r18,-16
 80044a8:	ac81780e 	bge	r21,r18,8004a8c <___vfprintf_internal_r+0x18a4>
 80044ac:	18c00404 	addi	r3,r3,16
 80044b0:	10800044 	addi	r2,r2,1
 80044b4:	45000015 	stw	r20,0(r8)
 80044b8:	45400115 	stw	r21,4(r8)
 80044bc:	d8c12015 	stw	r3,1152(sp)
 80044c0:	d8811f15 	stw	r2,1148(sp)
 80044c4:	e0bff60e 	bge	fp,r2,80044a0 <__alt_data_end+0xfc0044a0>
 80044c8:	b009883a 	mov	r4,r22
 80044cc:	b80b883a 	mov	r5,r23
 80044d0:	d9811e04 	addi	r6,sp,1144
 80044d4:	800acc00 	call	800acc0 <__sprint_r>
 80044d8:	103c5a1e 	bne	r2,zero,8003644 <__alt_data_end+0xfc003644>
 80044dc:	d8c12017 	ldw	r3,1152(sp)
 80044e0:	d8811f17 	ldw	r2,1148(sp)
 80044e4:	da000404 	addi	r8,sp,16
 80044e8:	003fee06 	br	80044a4 <__alt_data_end+0xfc0044a4>
 80044ec:	dac10e04 	addi	r11,sp,1080
 80044f0:	0025883a 	mov	r18,zero
 80044f4:	dac13115 	stw	r11,1220(sp)
 80044f8:	003cca06 	br	8003824 <__alt_data_end+0xfc003824>
 80044fc:	b009883a 	mov	r4,r22
 8004500:	b80b883a 	mov	r5,r23
 8004504:	d9811e04 	addi	r6,sp,1144
 8004508:	800acc00 	call	800acc0 <__sprint_r>
 800450c:	103c4d1e 	bne	r2,zero,8003644 <__alt_data_end+0xfc003644>
 8004510:	d8c12017 	ldw	r3,1152(sp)
 8004514:	d8812787 	ldb	r2,1182(sp)
 8004518:	da000404 	addi	r8,sp,16
 800451c:	003d0506 	br	8003934 <__alt_data_end+0xfc003934>
 8004520:	dac12d17 	ldw	r11,1204(sp)
 8004524:	14c00017 	ldw	r19,0(r2)
 8004528:	0039883a 	mov	fp,zero
 800452c:	5ac00104 	addi	r11,r11,4
 8004530:	dac12d15 	stw	r11,1204(sp)
 8004534:	0005883a 	mov	r2,zero
 8004538:	9807883a 	mov	r3,r19
 800453c:	003c9c06 	br	80037b0 <__alt_data_end+0xfc0037b0>
 8004540:	657fffc4 	addi	r21,r12,-1
 8004544:	057f5c0e 	bge	zero,r21,80042b8 <__alt_data_end+0xfc0042b8>
 8004548:	07000404 	movi	fp,16
 800454c:	e5408f0e 	bge	fp,r21,800478c <___vfprintf_internal_r+0x15a4>
 8004550:	01020074 	movhi	r4,2049
 8004554:	210c3b84 	addi	r4,r4,12526
 8004558:	d9012c15 	stw	r4,1200(sp)
 800455c:	01c001c4 	movi	r7,7
 8004560:	00000306 	br	8004570 <___vfprintf_internal_r+0x1388>
 8004564:	94800204 	addi	r18,r18,8
 8004568:	ad7ffc04 	addi	r21,r21,-16
 800456c:	e5408a0e 	bge	fp,r21,8004798 <___vfprintf_internal_r+0x15b0>
 8004570:	18c00404 	addi	r3,r3,16
 8004574:	84000044 	addi	r16,r16,1
 8004578:	95000015 	stw	r20,0(r18)
 800457c:	97000115 	stw	fp,4(r18)
 8004580:	d8c12015 	stw	r3,1152(sp)
 8004584:	dc011f15 	stw	r16,1148(sp)
 8004588:	3c3ff60e 	bge	r7,r16,8004564 <__alt_data_end+0xfc004564>
 800458c:	b009883a 	mov	r4,r22
 8004590:	b80b883a 	mov	r5,r23
 8004594:	d9811e04 	addi	r6,sp,1144
 8004598:	d9c13d15 	stw	r7,1268(sp)
 800459c:	800acc00 	call	800acc0 <__sprint_r>
 80045a0:	d9c13d17 	ldw	r7,1268(sp)
 80045a4:	103c271e 	bne	r2,zero,8003644 <__alt_data_end+0xfc003644>
 80045a8:	d8c12017 	ldw	r3,1152(sp)
 80045ac:	dc011f17 	ldw	r16,1148(sp)
 80045b0:	dc800404 	addi	r18,sp,16
 80045b4:	003fec06 	br	8004568 <__alt_data_end+0xfc004568>
 80045b8:	1cc00017 	ldw	r19,0(r3)
 80045bc:	dac12d17 	ldw	r11,1204(sp)
 80045c0:	9839d7fa 	srai	fp,r19,31
 80045c4:	5ac00104 	addi	r11,r11,4
 80045c8:	dac12d15 	stw	r11,1204(sp)
 80045cc:	e005883a 	mov	r2,fp
 80045d0:	003d9006 	br	8003c14 <__alt_data_end+0xfc003c14>
 80045d4:	00800084 	movi	r2,2
 80045d8:	9f06b03a 	or	r3,r19,fp
 80045dc:	003c7406 	br	80037b0 <__alt_data_end+0xfc0037b0>
 80045e0:	db012d17 	ldw	r12,1204(sp)
 80045e4:	14c00017 	ldw	r19,0(r2)
 80045e8:	0039883a 	mov	fp,zero
 80045ec:	63000104 	addi	r12,r12,4
 80045f0:	db012d15 	stw	r12,1204(sp)
 80045f4:	00800044 	movi	r2,1
 80045f8:	9807883a 	mov	r3,r19
 80045fc:	003c6c06 	br	80037b0 <__alt_data_end+0xfc0037b0>
 8004600:	10803fcc 	andi	r2,r2,255
 8004604:	1080201c 	xori	r2,r2,128
 8004608:	10bfe004 	addi	r2,r2,-128
 800460c:	01000c04 	movi	r4,48
 8004610:	1101a526 	beq	r2,r4,8004ca8 <___vfprintf_internal_r+0x1ac0>
 8004614:	dac13117 	ldw	r11,1220(sp)
 8004618:	db012817 	ldw	r12,1184(sp)
 800461c:	193fffc5 	stb	r4,-1(r3)
 8004620:	5affffc4 	addi	r11,r11,-1
 8004624:	dac13115 	stw	r11,1220(sp)
 8004628:	62e5c83a 	sub	r18,r12,r11
 800462c:	003c7d06 	br	8003824 <__alt_data_end+0xfc003824>
 8004630:	b009883a 	mov	r4,r22
 8004634:	b80b883a 	mov	r5,r23
 8004638:	d9811e04 	addi	r6,sp,1144
 800463c:	800acc00 	call	800acc0 <__sprint_r>
 8004640:	103c001e 	bne	r2,zero,8003644 <__alt_data_end+0xfc003644>
 8004644:	d8c12017 	ldw	r3,1152(sp)
 8004648:	da000404 	addi	r8,sp,16
 800464c:	db013117 	ldw	r12,1220(sp)
 8004650:	dac13417 	ldw	r11,1232(sp)
 8004654:	d8812617 	ldw	r2,1176(sp)
 8004658:	62e5883a 	add	r18,r12,r11
 800465c:	db013317 	ldw	r12,1228(sp)
 8004660:	13000216 	blt	r2,r12,800466c <___vfprintf_internal_r+0x1484>
 8004664:	8900004c 	andi	r4,r17,1
 8004668:	20000c26 	beq	r4,zero,800469c <___vfprintf_internal_r+0x14b4>
 800466c:	dac13817 	ldw	r11,1248(sp)
 8004670:	d9011f17 	ldw	r4,1148(sp)
 8004674:	db013517 	ldw	r12,1236(sp)
 8004678:	1ac7883a 	add	r3,r3,r11
 800467c:	21000044 	addi	r4,r4,1
 8004680:	43000015 	stw	r12,0(r8)
 8004684:	42c00115 	stw	r11,4(r8)
 8004688:	d8c12015 	stw	r3,1152(sp)
 800468c:	d9011f15 	stw	r4,1148(sp)
 8004690:	014001c4 	movi	r5,7
 8004694:	2901cc16 	blt	r5,r4,8004dc8 <___vfprintf_internal_r+0x1be0>
 8004698:	42000204 	addi	r8,r8,8
 800469c:	dac13317 	ldw	r11,1228(sp)
 80046a0:	8489c83a 	sub	r4,r16,r18
 80046a4:	5885c83a 	sub	r2,r11,r2
 80046a8:	1021883a 	mov	r16,r2
 80046ac:	2080010e 	bge	r4,r2,80046b4 <___vfprintf_internal_r+0x14cc>
 80046b0:	2021883a 	mov	r16,r4
 80046b4:	04000a0e 	bge	zero,r16,80046e0 <___vfprintf_internal_r+0x14f8>
 80046b8:	d9011f17 	ldw	r4,1148(sp)
 80046bc:	1c07883a 	add	r3,r3,r16
 80046c0:	44800015 	stw	r18,0(r8)
 80046c4:	21000044 	addi	r4,r4,1
 80046c8:	44000115 	stw	r16,4(r8)
 80046cc:	d8c12015 	stw	r3,1152(sp)
 80046d0:	d9011f15 	stw	r4,1148(sp)
 80046d4:	014001c4 	movi	r5,7
 80046d8:	2901d616 	blt	r5,r4,8004e34 <___vfprintf_internal_r+0x1c4c>
 80046dc:	42000204 	addi	r8,r8,8
 80046e0:	8001df16 	blt	r16,zero,8004e60 <___vfprintf_internal_r+0x1c78>
 80046e4:	1421c83a 	sub	r16,r2,r16
 80046e8:	043ce60e 	bge	zero,r16,8003a84 <__alt_data_end+0xfc003a84>
 80046ec:	04800404 	movi	r18,16
 80046f0:	d8811f17 	ldw	r2,1148(sp)
 80046f4:	943efc0e 	bge	r18,r16,80042e8 <__alt_data_end+0xfc0042e8>
 80046f8:	01420074 	movhi	r5,2049
 80046fc:	294c3b84 	addi	r5,r5,12526
 8004700:	d9412c15 	stw	r5,1200(sp)
 8004704:	054001c4 	movi	r21,7
 8004708:	00000306 	br	8004718 <___vfprintf_internal_r+0x1530>
 800470c:	42000204 	addi	r8,r8,8
 8004710:	843ffc04 	addi	r16,r16,-16
 8004714:	943ef70e 	bge	r18,r16,80042f4 <__alt_data_end+0xfc0042f4>
 8004718:	18c00404 	addi	r3,r3,16
 800471c:	10800044 	addi	r2,r2,1
 8004720:	45000015 	stw	r20,0(r8)
 8004724:	44800115 	stw	r18,4(r8)
 8004728:	d8c12015 	stw	r3,1152(sp)
 800472c:	d8811f15 	stw	r2,1148(sp)
 8004730:	a8bff60e 	bge	r21,r2,800470c <__alt_data_end+0xfc00470c>
 8004734:	b009883a 	mov	r4,r22
 8004738:	b80b883a 	mov	r5,r23
 800473c:	d9811e04 	addi	r6,sp,1144
 8004740:	800acc00 	call	800acc0 <__sprint_r>
 8004744:	103bbf1e 	bne	r2,zero,8003644 <__alt_data_end+0xfc003644>
 8004748:	d8c12017 	ldw	r3,1152(sp)
 800474c:	d8811f17 	ldw	r2,1148(sp)
 8004750:	da000404 	addi	r8,sp,16
 8004754:	003fee06 	br	8004710 <__alt_data_end+0xfc004710>
 8004758:	8888703a 	and	r4,r17,r2
 800475c:	203eab1e 	bne	r4,zero,800420c <__alt_data_end+0xfc00420c>
 8004760:	dc011f17 	ldw	r16,1148(sp)
 8004764:	db013117 	ldw	r12,1220(sp)
 8004768:	40800115 	stw	r2,4(r8)
 800476c:	84000044 	addi	r16,r16,1
 8004770:	43000015 	stw	r12,0(r8)
 8004774:	d8c12015 	stw	r3,1152(sp)
 8004778:	dc011f15 	stw	r16,1148(sp)
 800477c:	008001c4 	movi	r2,7
 8004780:	14000e16 	blt	r2,r16,80047bc <___vfprintf_internal_r+0x15d4>
 8004784:	44800204 	addi	r18,r8,8
 8004788:	003ecb06 	br	80042b8 <__alt_data_end+0xfc0042b8>
 800478c:	00820074 	movhi	r2,2049
 8004790:	108c3b84 	addi	r2,r2,12526
 8004794:	d8812c15 	stw	r2,1200(sp)
 8004798:	dac12c17 	ldw	r11,1200(sp)
 800479c:	1d47883a 	add	r3,r3,r21
 80047a0:	84000044 	addi	r16,r16,1
 80047a4:	92c00015 	stw	r11,0(r18)
 80047a8:	95400115 	stw	r21,4(r18)
 80047ac:	d8c12015 	stw	r3,1152(sp)
 80047b0:	dc011f15 	stw	r16,1148(sp)
 80047b4:	008001c4 	movi	r2,7
 80047b8:	143ebe0e 	bge	r2,r16,80042b4 <__alt_data_end+0xfc0042b4>
 80047bc:	b009883a 	mov	r4,r22
 80047c0:	b80b883a 	mov	r5,r23
 80047c4:	d9811e04 	addi	r6,sp,1144
 80047c8:	800acc00 	call	800acc0 <__sprint_r>
 80047cc:	103b9d1e 	bne	r2,zero,8003644 <__alt_data_end+0xfc003644>
 80047d0:	d8c12017 	ldw	r3,1152(sp)
 80047d4:	dc011f17 	ldw	r16,1148(sp)
 80047d8:	dc800404 	addi	r18,sp,16
 80047dc:	003eb606 	br	80042b8 <__alt_data_end+0xfc0042b8>
 80047e0:	b009883a 	mov	r4,r22
 80047e4:	b80b883a 	mov	r5,r23
 80047e8:	d9811e04 	addi	r6,sp,1144
 80047ec:	800acc00 	call	800acc0 <__sprint_r>
 80047f0:	103b941e 	bne	r2,zero,8003644 <__alt_data_end+0xfc003644>
 80047f4:	d8c12017 	ldw	r3,1152(sp)
 80047f8:	dc011f17 	ldw	r16,1148(sp)
 80047fc:	da000404 	addi	r8,sp,16
 8004800:	003e8d06 	br	8004238 <__alt_data_end+0xfc004238>
 8004804:	b009883a 	mov	r4,r22
 8004808:	b80b883a 	mov	r5,r23
 800480c:	d9811e04 	addi	r6,sp,1144
 8004810:	800acc00 	call	800acc0 <__sprint_r>
 8004814:	103b8b1e 	bne	r2,zero,8003644 <__alt_data_end+0xfc003644>
 8004818:	d8c12017 	ldw	r3,1152(sp)
 800481c:	dc011f17 	ldw	r16,1148(sp)
 8004820:	dc800404 	addi	r18,sp,16
 8004824:	003e8f06 	br	8004264 <__alt_data_end+0xfc004264>
 8004828:	db010e04 	addi	r12,sp,1080
 800482c:	0025883a 	mov	r18,zero
 8004830:	db013115 	stw	r12,1220(sp)
 8004834:	003bfb06 	br	8003824 <__alt_data_end+0xfc003824>
 8004838:	b009883a 	mov	r4,r22
 800483c:	b80b883a 	mov	r5,r23
 8004840:	d9811e04 	addi	r6,sp,1144
 8004844:	800acc00 	call	800acc0 <__sprint_r>
 8004848:	103b7e1e 	bne	r2,zero,8003644 <__alt_data_end+0xfc003644>
 800484c:	d8c12017 	ldw	r3,1152(sp)
 8004850:	da000404 	addi	r8,sp,16
 8004854:	003c5506 	br	80039ac <__alt_data_end+0xfc0039ac>
 8004858:	04e7c83a 	sub	r19,zero,r19
 800485c:	9804c03a 	cmpne	r2,r19,zero
 8004860:	0739c83a 	sub	fp,zero,fp
 8004864:	e0b9c83a 	sub	fp,fp,r2
 8004868:	05400b44 	movi	r21,45
 800486c:	dd412785 	stb	r21,1182(sp)
 8004870:	da413215 	stw	r9,1224(sp)
 8004874:	00800044 	movi	r2,1
 8004878:	9f06b03a 	or	r3,r19,fp
 800487c:	003bcf06 	br	80037bc <__alt_data_end+0xfc0037bc>
 8004880:	da013f15 	stw	r8,1276(sp)
 8004884:	da413e15 	stw	r9,1272(sp)
 8004888:	80096540 	call	8009654 <__fpclassifyd>
 800488c:	da013f17 	ldw	r8,1276(sp)
 8004890:	da413e17 	ldw	r9,1272(sp)
 8004894:	1000ce26 	beq	r2,zero,8004bd0 <___vfprintf_internal_r+0x19e8>
 8004898:	057ff7c4 	movi	r21,-33
 800489c:	00bfffc4 	movi	r2,-1
 80048a0:	856a703a 	and	r21,r16,r21
 80048a4:	4881f026 	beq	r9,r2,8005068 <___vfprintf_internal_r+0x1e80>
 80048a8:	008011c4 	movi	r2,71
 80048ac:	a881e526 	beq	r21,r2,8005044 <___vfprintf_internal_r+0x1e5c>
 80048b0:	db013917 	ldw	r12,1252(sp)
 80048b4:	8ac04014 	ori	r11,r17,256
 80048b8:	dac12d15 	stw	r11,1204(sp)
 80048bc:	6001e416 	blt	r12,zero,8005050 <___vfprintf_internal_r+0x1e68>
 80048c0:	dc813917 	ldw	r18,1252(sp)
 80048c4:	d8012b05 	stb	zero,1196(sp)
 80048c8:	00801984 	movi	r2,102
 80048cc:	80811826 	beq	r16,r2,8004d30 <___vfprintf_internal_r+0x1b48>
 80048d0:	00801184 	movi	r2,70
 80048d4:	80811626 	beq	r16,r2,8004d30 <___vfprintf_internal_r+0x1b48>
 80048d8:	00801144 	movi	r2,69
 80048dc:	a881e026 	beq	r21,r2,8005060 <___vfprintf_internal_r+0x1e78>
 80048e0:	4839883a 	mov	fp,r9
 80048e4:	d8812604 	addi	r2,sp,1176
 80048e8:	d8800115 	stw	r2,4(sp)
 80048ec:	d9413717 	ldw	r5,1244(sp)
 80048f0:	d8812504 	addi	r2,sp,1172
 80048f4:	d8800215 	stw	r2,8(sp)
 80048f8:	d8812104 	addi	r2,sp,1156
 80048fc:	df000015 	stw	fp,0(sp)
 8004900:	d8800315 	stw	r2,12(sp)
 8004904:	b009883a 	mov	r4,r22
 8004908:	900d883a 	mov	r6,r18
 800490c:	01c00084 	movi	r7,2
 8004910:	da013f15 	stw	r8,1276(sp)
 8004914:	da413e15 	stw	r9,1272(sp)
 8004918:	80055380 	call	8005538 <_dtoa_r>
 800491c:	d8813115 	stw	r2,1220(sp)
 8004920:	008019c4 	movi	r2,103
 8004924:	da013f17 	ldw	r8,1276(sp)
 8004928:	da413e17 	ldw	r9,1272(sp)
 800492c:	80800226 	beq	r16,r2,8004938 <___vfprintf_internal_r+0x1750>
 8004930:	008011c4 	movi	r2,71
 8004934:	8081101e 	bne	r16,r2,8004d78 <___vfprintf_internal_r+0x1b90>
 8004938:	8880004c 	andi	r2,r17,1
 800493c:	1001df26 	beq	r2,zero,80050bc <___vfprintf_internal_r+0x1ed4>
 8004940:	db013117 	ldw	r12,1220(sp)
 8004944:	6715883a 	add	r10,r12,fp
 8004948:	d9013717 	ldw	r4,1244(sp)
 800494c:	900b883a 	mov	r5,r18
 8004950:	000d883a 	mov	r6,zero
 8004954:	000f883a 	mov	r7,zero
 8004958:	da013f15 	stw	r8,1276(sp)
 800495c:	da413e15 	stw	r9,1272(sp)
 8004960:	da813d15 	stw	r10,1268(sp)
 8004964:	800f3140 	call	800f314 <__eqdf2>
 8004968:	da013f17 	ldw	r8,1276(sp)
 800496c:	da413e17 	ldw	r9,1272(sp)
 8004970:	da813d17 	ldw	r10,1268(sp)
 8004974:	10016526 	beq	r2,zero,8004f0c <___vfprintf_internal_r+0x1d24>
 8004978:	d8812117 	ldw	r2,1156(sp)
 800497c:	1280062e 	bgeu	r2,r10,8004998 <___vfprintf_internal_r+0x17b0>
 8004980:	01000c04 	movi	r4,48
 8004984:	10c00044 	addi	r3,r2,1
 8004988:	d8c12115 	stw	r3,1156(sp)
 800498c:	11000005 	stb	r4,0(r2)
 8004990:	d8812117 	ldw	r2,1156(sp)
 8004994:	12bffb36 	bltu	r2,r10,8004984 <__alt_data_end+0xfc004984>
 8004998:	db013117 	ldw	r12,1220(sp)
 800499c:	1305c83a 	sub	r2,r2,r12
 80049a0:	d8813315 	stw	r2,1228(sp)
 80049a4:	008011c4 	movi	r2,71
 80049a8:	a8814a26 	beq	r21,r2,8004ed4 <___vfprintf_internal_r+0x1cec>
 80049ac:	00801944 	movi	r2,101
 80049b0:	14020a0e 	bge	r2,r16,80051dc <___vfprintf_internal_r+0x1ff4>
 80049b4:	00801984 	movi	r2,102
 80049b8:	8081b626 	beq	r16,r2,8005094 <___vfprintf_internal_r+0x1eac>
 80049bc:	db012617 	ldw	r12,1176(sp)
 80049c0:	db013415 	stw	r12,1232(sp)
 80049c4:	db013417 	ldw	r12,1232(sp)
 80049c8:	dac13317 	ldw	r11,1228(sp)
 80049cc:	62c1a816 	blt	r12,r11,8005070 <___vfprintf_internal_r+0x1e88>
 80049d0:	8c40004c 	andi	r17,r17,1
 80049d4:	8801ca1e 	bne	r17,zero,8005100 <___vfprintf_internal_r+0x1f18>
 80049d8:	6005883a 	mov	r2,r12
 80049dc:	6001b516 	blt	r12,zero,80050b4 <___vfprintf_internal_r+0x1ecc>
 80049e0:	dc813417 	ldw	r18,1232(sp)
 80049e4:	df012b07 	ldb	fp,1196(sp)
 80049e8:	e001321e 	bne	fp,zero,8004eb4 <___vfprintf_internal_r+0x1ccc>
 80049ec:	dc412d17 	ldw	r17,1204(sp)
 80049f0:	dd412783 	ldbu	r21,1182(sp)
 80049f4:	d8812b15 	stw	r2,1196(sp)
 80049f8:	dcc12d15 	stw	r19,1204(sp)
 80049fc:	d8013215 	stw	zero,1224(sp)
 8004a00:	003b8d06 	br	8003838 <__alt_data_end+0xfc003838>
 8004a04:	88c0100c 	andi	r3,r17,64
 8004a08:	18008226 	beq	r3,zero,8004c14 <___vfprintf_internal_r+0x1a2c>
 8004a0c:	dac12d17 	ldw	r11,1204(sp)
 8004a10:	14c0000b 	ldhu	r19,0(r2)
 8004a14:	0039883a 	mov	fp,zero
 8004a18:	5ac00104 	addi	r11,r11,4
 8004a1c:	dac12d15 	stw	r11,1204(sp)
 8004a20:	003c8f06 	br	8003c60 <__alt_data_end+0xfc003c60>
 8004a24:	1c000007 	ldb	r16,0(r3)
 8004a28:	1805883a 	mov	r2,r3
 8004a2c:	003a5506 	br	8003384 <__alt_data_end+0xfc003384>
 8004a30:	00800084 	movi	r2,2
 8004a34:	003b5e06 	br	80037b0 <__alt_data_end+0xfc0037b0>
 8004a38:	8880040c 	andi	r2,r17,16
 8004a3c:	1000091e 	bne	r2,zero,8004a64 <___vfprintf_internal_r+0x187c>
 8004a40:	8c40100c 	andi	r17,r17,64
 8004a44:	88000726 	beq	r17,zero,8004a64 <___vfprintf_internal_r+0x187c>
 8004a48:	db012d17 	ldw	r12,1204(sp)
 8004a4c:	dac12f17 	ldw	r11,1212(sp)
 8004a50:	60800017 	ldw	r2,0(r12)
 8004a54:	63000104 	addi	r12,r12,4
 8004a58:	db012d15 	stw	r12,1204(sp)
 8004a5c:	12c0000d 	sth	r11,0(r2)
 8004a60:	003a1e06 	br	80032dc <__alt_data_end+0xfc0032dc>
 8004a64:	db012d17 	ldw	r12,1204(sp)
 8004a68:	dac12f17 	ldw	r11,1212(sp)
 8004a6c:	60800017 	ldw	r2,0(r12)
 8004a70:	63000104 	addi	r12,r12,4
 8004a74:	db012d15 	stw	r12,1204(sp)
 8004a78:	12c00015 	stw	r11,0(r2)
 8004a7c:	003a1706 	br	80032dc <__alt_data_end+0xfc0032dc>
 8004a80:	01020074 	movhi	r4,2049
 8004a84:	210c3b84 	addi	r4,r4,12526
 8004a88:	d9012c15 	stw	r4,1200(sp)
 8004a8c:	dac12c17 	ldw	r11,1200(sp)
 8004a90:	1c87883a 	add	r3,r3,r18
 8004a94:	10800044 	addi	r2,r2,1
 8004a98:	42c00015 	stw	r11,0(r8)
 8004a9c:	44800115 	stw	r18,4(r8)
 8004aa0:	d8c12015 	stw	r3,1152(sp)
 8004aa4:	d8811f15 	stw	r2,1148(sp)
 8004aa8:	010001c4 	movi	r4,7
 8004aac:	20bee016 	blt	r4,r2,8004630 <__alt_data_end+0xfc004630>
 8004ab0:	42000204 	addi	r8,r8,8
 8004ab4:	003ee506 	br	800464c <__alt_data_end+0xfc00464c>
 8004ab8:	01020074 	movhi	r4,2049
 8004abc:	210c3b84 	addi	r4,r4,12526
 8004ac0:	d9012c15 	stw	r4,1200(sp)
 8004ac4:	003bd806 	br	8003a28 <__alt_data_end+0xfc003a28>
 8004ac8:	b009883a 	mov	r4,r22
 8004acc:	b80b883a 	mov	r5,r23
 8004ad0:	d9811e04 	addi	r6,sp,1144
 8004ad4:	800acc00 	call	800acc0 <__sprint_r>
 8004ad8:	103ada1e 	bne	r2,zero,8003644 <__alt_data_end+0xfc003644>
 8004adc:	d8c12017 	ldw	r3,1152(sp)
 8004ae0:	da000404 	addi	r8,sp,16
 8004ae4:	003d6b06 	br	8004094 <__alt_data_end+0xfc004094>
 8004ae8:	d8811f17 	ldw	r2,1148(sp)
 8004aec:	03020074 	movhi	r12,2049
 8004af0:	01000044 	movi	r4,1
 8004af4:	18c00044 	addi	r3,r3,1
 8004af8:	10800044 	addi	r2,r2,1
 8004afc:	630c3304 	addi	r12,r12,12492
 8004b00:	41000115 	stw	r4,4(r8)
 8004b04:	43000015 	stw	r12,0(r8)
 8004b08:	d8c12015 	stw	r3,1152(sp)
 8004b0c:	d8811f15 	stw	r2,1148(sp)
 8004b10:	010001c4 	movi	r4,7
 8004b14:	20804916 	blt	r4,r2,8004c3c <___vfprintf_internal_r+0x1a54>
 8004b18:	42000204 	addi	r8,r8,8
 8004b1c:	8000041e 	bne	r16,zero,8004b30 <___vfprintf_internal_r+0x1948>
 8004b20:	dac13317 	ldw	r11,1228(sp)
 8004b24:	5800021e 	bne	r11,zero,8004b30 <___vfprintf_internal_r+0x1948>
 8004b28:	8880004c 	andi	r2,r17,1
 8004b2c:	103bd526 	beq	r2,zero,8003a84 <__alt_data_end+0xfc003a84>
 8004b30:	db013817 	ldw	r12,1248(sp)
 8004b34:	d8811f17 	ldw	r2,1148(sp)
 8004b38:	dac13517 	ldw	r11,1236(sp)
 8004b3c:	1b07883a 	add	r3,r3,r12
 8004b40:	10800044 	addi	r2,r2,1
 8004b44:	42c00015 	stw	r11,0(r8)
 8004b48:	43000115 	stw	r12,4(r8)
 8004b4c:	d8c12015 	stw	r3,1152(sp)
 8004b50:	d8811f15 	stw	r2,1148(sp)
 8004b54:	010001c4 	movi	r4,7
 8004b58:	20813016 	blt	r4,r2,800501c <___vfprintf_internal_r+0x1e34>
 8004b5c:	42000204 	addi	r8,r8,8
 8004b60:	0421c83a 	sub	r16,zero,r16
 8004b64:	0400630e 	bge	zero,r16,8004cf4 <___vfprintf_internal_r+0x1b0c>
 8004b68:	04800404 	movi	r18,16
 8004b6c:	94009f0e 	bge	r18,r16,8004dec <___vfprintf_internal_r+0x1c04>
 8004b70:	01020074 	movhi	r4,2049
 8004b74:	210c3b84 	addi	r4,r4,12526
 8004b78:	d9012c15 	stw	r4,1200(sp)
 8004b7c:	054001c4 	movi	r21,7
 8004b80:	00000306 	br	8004b90 <___vfprintf_internal_r+0x19a8>
 8004b84:	42000204 	addi	r8,r8,8
 8004b88:	843ffc04 	addi	r16,r16,-16
 8004b8c:	94009a0e 	bge	r18,r16,8004df8 <___vfprintf_internal_r+0x1c10>
 8004b90:	18c00404 	addi	r3,r3,16
 8004b94:	10800044 	addi	r2,r2,1
 8004b98:	45000015 	stw	r20,0(r8)
 8004b9c:	44800115 	stw	r18,4(r8)
 8004ba0:	d8c12015 	stw	r3,1152(sp)
 8004ba4:	d8811f15 	stw	r2,1148(sp)
 8004ba8:	a8bff60e 	bge	r21,r2,8004b84 <__alt_data_end+0xfc004b84>
 8004bac:	b009883a 	mov	r4,r22
 8004bb0:	b80b883a 	mov	r5,r23
 8004bb4:	d9811e04 	addi	r6,sp,1144
 8004bb8:	800acc00 	call	800acc0 <__sprint_r>
 8004bbc:	103aa11e 	bne	r2,zero,8003644 <__alt_data_end+0xfc003644>
 8004bc0:	d8c12017 	ldw	r3,1152(sp)
 8004bc4:	d8811f17 	ldw	r2,1148(sp)
 8004bc8:	da000404 	addi	r8,sp,16
 8004bcc:	003fee06 	br	8004b88 <__alt_data_end+0xfc004b88>
 8004bd0:	008011c4 	movi	r2,71
 8004bd4:	1400b316 	blt	r2,r16,8004ea4 <___vfprintf_internal_r+0x1cbc>
 8004bd8:	03020074 	movhi	r12,2049
 8004bdc:	630c2504 	addi	r12,r12,12436
 8004be0:	db013115 	stw	r12,1220(sp)
 8004be4:	00c000c4 	movi	r3,3
 8004be8:	00bfdfc4 	movi	r2,-129
 8004bec:	d8c12b15 	stw	r3,1196(sp)
 8004bf0:	88a2703a 	and	r17,r17,r2
 8004bf4:	dd412783 	ldbu	r21,1182(sp)
 8004bf8:	dcc12d15 	stw	r19,1204(sp)
 8004bfc:	1825883a 	mov	r18,r3
 8004c00:	d8013215 	stw	zero,1224(sp)
 8004c04:	d8013415 	stw	zero,1232(sp)
 8004c08:	003b0b06 	br	8003838 <__alt_data_end+0xfc003838>
 8004c0c:	4825883a 	mov	r18,r9
 8004c10:	003cba06 	br	8003efc <__alt_data_end+0xfc003efc>
 8004c14:	db012d17 	ldw	r12,1204(sp)
 8004c18:	14c00017 	ldw	r19,0(r2)
 8004c1c:	0039883a 	mov	fp,zero
 8004c20:	63000104 	addi	r12,r12,4
 8004c24:	db012d15 	stw	r12,1204(sp)
 8004c28:	003c0d06 	br	8003c60 <__alt_data_end+0xfc003c60>
 8004c2c:	00820074 	movhi	r2,2049
 8004c30:	108c2304 	addi	r2,r2,12428
 8004c34:	d8813115 	stw	r2,1220(sp)
 8004c38:	003ac406 	br	800374c <__alt_data_end+0xfc00374c>
 8004c3c:	b009883a 	mov	r4,r22
 8004c40:	b80b883a 	mov	r5,r23
 8004c44:	d9811e04 	addi	r6,sp,1144
 8004c48:	800acc00 	call	800acc0 <__sprint_r>
 8004c4c:	103a7d1e 	bne	r2,zero,8003644 <__alt_data_end+0xfc003644>
 8004c50:	dc012617 	ldw	r16,1176(sp)
 8004c54:	d8c12017 	ldw	r3,1152(sp)
 8004c58:	da000404 	addi	r8,sp,16
 8004c5c:	003faf06 	br	8004b1c <__alt_data_end+0xfc004b1c>
 8004c60:	db012e17 	ldw	r12,1208(sp)
 8004c64:	1805883a 	mov	r2,r3
 8004c68:	dac12d15 	stw	r11,1204(sp)
 8004c6c:	0319c83a 	sub	r12,zero,r12
 8004c70:	db012e15 	stw	r12,1208(sp)
 8004c74:	003a7e06 	br	8003670 <__alt_data_end+0xfc003670>
 8004c78:	18800044 	addi	r2,r3,1
 8004c7c:	8c400814 	ori	r17,r17,32
 8004c80:	1c000047 	ldb	r16,1(r3)
 8004c84:	0039bf06 	br	8003384 <__alt_data_end+0xfc003384>
 8004c88:	b009883a 	mov	r4,r22
 8004c8c:	b80b883a 	mov	r5,r23
 8004c90:	d9811e04 	addi	r6,sp,1144
 8004c94:	800acc00 	call	800acc0 <__sprint_r>
 8004c98:	103a6a1e 	bne	r2,zero,8003644 <__alt_data_end+0xfc003644>
 8004c9c:	d8c12017 	ldw	r3,1152(sp)
 8004ca0:	da000404 	addi	r8,sp,16
 8004ca4:	003d0c06 	br	80040d8 <__alt_data_end+0xfc0040d8>
 8004ca8:	db012817 	ldw	r12,1184(sp)
 8004cac:	d8c13117 	ldw	r3,1220(sp)
 8004cb0:	60e5c83a 	sub	r18,r12,r3
 8004cb4:	003adb06 	br	8003824 <__alt_data_end+0xfc003824>
 8004cb8:	da013f15 	stw	r8,1276(sp)
 8004cbc:	80098fc0 	call	80098fc <strlen>
 8004cc0:	1025883a 	mov	r18,r2
 8004cc4:	da013f17 	ldw	r8,1276(sp)
 8004cc8:	903c8e0e 	bge	r18,zero,8003f04 <__alt_data_end+0xfc003f04>
 8004ccc:	0005883a 	mov	r2,zero
 8004cd0:	003c8c06 	br	8003f04 <__alt_data_end+0xfc003f04>
 8004cd4:	b009883a 	mov	r4,r22
 8004cd8:	b80b883a 	mov	r5,r23
 8004cdc:	d9811e04 	addi	r6,sp,1144
 8004ce0:	800acc00 	call	800acc0 <__sprint_r>
 8004ce4:	103a571e 	bne	r2,zero,8003644 <__alt_data_end+0xfc003644>
 8004ce8:	d8c12017 	ldw	r3,1152(sp)
 8004cec:	d8811f17 	ldw	r2,1148(sp)
 8004cf0:	da000404 	addi	r8,sp,16
 8004cf4:	db013317 	ldw	r12,1228(sp)
 8004cf8:	dac13117 	ldw	r11,1220(sp)
 8004cfc:	10800044 	addi	r2,r2,1
 8004d00:	60c7883a 	add	r3,r12,r3
 8004d04:	42c00015 	stw	r11,0(r8)
 8004d08:	43000115 	stw	r12,4(r8)
 8004d0c:	d8c12015 	stw	r3,1152(sp)
 8004d10:	d8811f15 	stw	r2,1148(sp)
 8004d14:	010001c4 	movi	r4,7
 8004d18:	20bb590e 	bge	r4,r2,8003a80 <__alt_data_end+0xfc003a80>
 8004d1c:	003d7e06 	br	8004318 <__alt_data_end+0xfc004318>
 8004d20:	01020074 	movhi	r4,2049
 8004d24:	210c3f84 	addi	r4,r4,12542
 8004d28:	d9013615 	stw	r4,1240(sp)
 8004d2c:	003af606 	br	8003908 <__alt_data_end+0xfc003908>
 8004d30:	d8812604 	addi	r2,sp,1176
 8004d34:	d8800115 	stw	r2,4(sp)
 8004d38:	d9413717 	ldw	r5,1244(sp)
 8004d3c:	d8812504 	addi	r2,sp,1172
 8004d40:	d8800215 	stw	r2,8(sp)
 8004d44:	d8812104 	addi	r2,sp,1156
 8004d48:	da400015 	stw	r9,0(sp)
 8004d4c:	d8800315 	stw	r2,12(sp)
 8004d50:	b009883a 	mov	r4,r22
 8004d54:	900d883a 	mov	r6,r18
 8004d58:	01c000c4 	movi	r7,3
 8004d5c:	da013f15 	stw	r8,1276(sp)
 8004d60:	da413e15 	stw	r9,1272(sp)
 8004d64:	80055380 	call	8005538 <_dtoa_r>
 8004d68:	da413e17 	ldw	r9,1272(sp)
 8004d6c:	da013f17 	ldw	r8,1276(sp)
 8004d70:	d8813115 	stw	r2,1220(sp)
 8004d74:	4839883a 	mov	fp,r9
 8004d78:	dac13117 	ldw	r11,1220(sp)
 8004d7c:	00801184 	movi	r2,70
 8004d80:	5f15883a 	add	r10,r11,fp
 8004d84:	a8bef01e 	bne	r21,r2,8004948 <__alt_data_end+0xfc004948>
 8004d88:	59000007 	ldb	r4,0(r11)
 8004d8c:	00800c04 	movi	r2,48
 8004d90:	2080e026 	beq	r4,r2,8005114 <___vfprintf_internal_r+0x1f2c>
 8004d94:	d8c12617 	ldw	r3,1176(sp)
 8004d98:	50d5883a 	add	r10,r10,r3
 8004d9c:	003eea06 	br	8004948 <__alt_data_end+0xfc004948>
 8004da0:	0025883a 	mov	r18,zero
 8004da4:	003db306 	br	8004474 <__alt_data_end+0xfc004474>
 8004da8:	b009883a 	mov	r4,r22
 8004dac:	b80b883a 	mov	r5,r23
 8004db0:	d9811e04 	addi	r6,sp,1144
 8004db4:	800acc00 	call	800acc0 <__sprint_r>
 8004db8:	103a221e 	bne	r2,zero,8003644 <__alt_data_end+0xfc003644>
 8004dbc:	d8c12017 	ldw	r3,1152(sp)
 8004dc0:	da000404 	addi	r8,sp,16
 8004dc4:	003daa06 	br	8004470 <__alt_data_end+0xfc004470>
 8004dc8:	b009883a 	mov	r4,r22
 8004dcc:	b80b883a 	mov	r5,r23
 8004dd0:	d9811e04 	addi	r6,sp,1144
 8004dd4:	800acc00 	call	800acc0 <__sprint_r>
 8004dd8:	103a1a1e 	bne	r2,zero,8003644 <__alt_data_end+0xfc003644>
 8004ddc:	d8812617 	ldw	r2,1176(sp)
 8004de0:	d8c12017 	ldw	r3,1152(sp)
 8004de4:	da000404 	addi	r8,sp,16
 8004de8:	003e2c06 	br	800469c <__alt_data_end+0xfc00469c>
 8004dec:	03020074 	movhi	r12,2049
 8004df0:	630c3b84 	addi	r12,r12,12526
 8004df4:	db012c15 	stw	r12,1200(sp)
 8004df8:	dac12c17 	ldw	r11,1200(sp)
 8004dfc:	1c07883a 	add	r3,r3,r16
 8004e00:	10800044 	addi	r2,r2,1
 8004e04:	42c00015 	stw	r11,0(r8)
 8004e08:	44000115 	stw	r16,4(r8)
 8004e0c:	d8c12015 	stw	r3,1152(sp)
 8004e10:	d8811f15 	stw	r2,1148(sp)
 8004e14:	010001c4 	movi	r4,7
 8004e18:	20bfae16 	blt	r4,r2,8004cd4 <__alt_data_end+0xfc004cd4>
 8004e1c:	42000204 	addi	r8,r8,8
 8004e20:	003fb406 	br	8004cf4 <__alt_data_end+0xfc004cf4>
 8004e24:	03020074 	movhi	r12,2049
 8004e28:	630c3f84 	addi	r12,r12,12542
 8004e2c:	db013615 	stw	r12,1240(sp)
 8004e30:	003b3806 	br	8003b14 <__alt_data_end+0xfc003b14>
 8004e34:	b009883a 	mov	r4,r22
 8004e38:	b80b883a 	mov	r5,r23
 8004e3c:	d9811e04 	addi	r6,sp,1144
 8004e40:	800acc00 	call	800acc0 <__sprint_r>
 8004e44:	1039ff1e 	bne	r2,zero,8003644 <__alt_data_end+0xfc003644>
 8004e48:	d8812617 	ldw	r2,1176(sp)
 8004e4c:	db013317 	ldw	r12,1228(sp)
 8004e50:	d8c12017 	ldw	r3,1152(sp)
 8004e54:	da000404 	addi	r8,sp,16
 8004e58:	6085c83a 	sub	r2,r12,r2
 8004e5c:	003e2006 	br	80046e0 <__alt_data_end+0xfc0046e0>
 8004e60:	0021883a 	mov	r16,zero
 8004e64:	003e1f06 	br	80046e4 <__alt_data_end+0xfc0046e4>
 8004e68:	00800184 	movi	r2,6
 8004e6c:	1240012e 	bgeu	r2,r9,8004e74 <___vfprintf_internal_r+0x1c8c>
 8004e70:	1013883a 	mov	r9,r2
 8004e74:	4825883a 	mov	r18,r9
 8004e78:	4805883a 	mov	r2,r9
 8004e7c:	48009e16 	blt	r9,zero,80050f8 <___vfprintf_internal_r+0x1f10>
 8004e80:	d8812b15 	stw	r2,1196(sp)
 8004e84:	00820074 	movhi	r2,2049
 8004e88:	108c3104 	addi	r2,r2,12484
 8004e8c:	d8813115 	stw	r2,1220(sp)
 8004e90:	dcc12d15 	stw	r19,1204(sp)
 8004e94:	d8013215 	stw	zero,1224(sp)
 8004e98:	d8013415 	stw	zero,1232(sp)
 8004e9c:	0005883a 	mov	r2,zero
 8004ea0:	003a6c06 	br	8003854 <__alt_data_end+0xfc003854>
 8004ea4:	00820074 	movhi	r2,2049
 8004ea8:	108c2604 	addi	r2,r2,12440
 8004eac:	d8813115 	stw	r2,1220(sp)
 8004eb0:	003f4c06 	br	8004be4 <__alt_data_end+0xfc004be4>
 8004eb4:	00c00b44 	movi	r3,45
 8004eb8:	d8812b15 	stw	r2,1196(sp)
 8004ebc:	dc412d17 	ldw	r17,1204(sp)
 8004ec0:	d8c12785 	stb	r3,1182(sp)
 8004ec4:	dcc12d15 	stw	r19,1204(sp)
 8004ec8:	d8013215 	stw	zero,1224(sp)
 8004ecc:	00800b44 	movi	r2,45
 8004ed0:	003a5d06 	br	8003848 <__alt_data_end+0xfc003848>
 8004ed4:	d8c12617 	ldw	r3,1176(sp)
 8004ed8:	00bfff44 	movi	r2,-3
 8004edc:	18800d16 	blt	r3,r2,8004f14 <___vfprintf_internal_r+0x1d2c>
 8004ee0:	48c00c16 	blt	r9,r3,8004f14 <___vfprintf_internal_r+0x1d2c>
 8004ee4:	d8c13415 	stw	r3,1232(sp)
 8004ee8:	040019c4 	movi	r16,103
 8004eec:	003eb506 	br	80049c4 <__alt_data_end+0xfc0049c4>
 8004ef0:	05400b44 	movi	r21,45
 8004ef4:	dd412785 	stb	r21,1182(sp)
 8004ef8:	003a0f06 	br	8003738 <__alt_data_end+0xfc003738>
 8004efc:	01020074 	movhi	r4,2049
 8004f00:	210c3b84 	addi	r4,r4,12526
 8004f04:	d9012c15 	stw	r4,1200(sp)
 8004f08:	003cb106 	br	80041d0 <__alt_data_end+0xfc0041d0>
 8004f0c:	5005883a 	mov	r2,r10
 8004f10:	003ea106 	br	8004998 <__alt_data_end+0xfc004998>
 8004f14:	843fff84 	addi	r16,r16,-2
 8004f18:	1f3fffc4 	addi	fp,r3,-1
 8004f1c:	df012615 	stw	fp,1176(sp)
 8004f20:	dc0122c5 	stb	r16,1163(sp)
 8004f24:	e0009516 	blt	fp,zero,800517c <___vfprintf_internal_r+0x1f94>
 8004f28:	00800ac4 	movi	r2,43
 8004f2c:	d8812305 	stb	r2,1164(sp)
 8004f30:	00800244 	movi	r2,9
 8004f34:	1700690e 	bge	r2,fp,80050dc <___vfprintf_internal_r+0x1ef4>
 8004f38:	dd4122c4 	addi	r21,sp,1163
 8004f3c:	dc012c15 	stw	r16,1200(sp)
 8004f40:	8825883a 	mov	r18,r17
 8004f44:	a821883a 	mov	r16,r21
 8004f48:	4023883a 	mov	r17,r8
 8004f4c:	e009883a 	mov	r4,fp
 8004f50:	01400284 	movi	r5,10
 8004f54:	800e1400 	call	800e140 <__modsi3>
 8004f58:	10800c04 	addi	r2,r2,48
 8004f5c:	843fffc4 	addi	r16,r16,-1
 8004f60:	e009883a 	mov	r4,fp
 8004f64:	01400284 	movi	r5,10
 8004f68:	80800005 	stb	r2,0(r16)
 8004f6c:	800e0ec0 	call	800e0ec <__divsi3>
 8004f70:	1039883a 	mov	fp,r2
 8004f74:	00800244 	movi	r2,9
 8004f78:	173ff416 	blt	r2,fp,8004f4c <__alt_data_end+0xfc004f4c>
 8004f7c:	8811883a 	mov	r8,r17
 8004f80:	e0800c04 	addi	r2,fp,48
 8004f84:	9023883a 	mov	r17,r18
 8004f88:	8025883a 	mov	r18,r16
 8004f8c:	913fffc4 	addi	r4,r18,-1
 8004f90:	90bfffc5 	stb	r2,-1(r18)
 8004f94:	dc012c17 	ldw	r16,1200(sp)
 8004f98:	25408e2e 	bgeu	r4,r21,80051d4 <___vfprintf_internal_r+0x1fec>
 8004f9c:	d9412384 	addi	r5,sp,1166
 8004fa0:	2c8bc83a 	sub	r5,r5,r18
 8004fa4:	d8c12344 	addi	r3,sp,1165
 8004fa8:	a94b883a 	add	r5,r21,r5
 8004fac:	00000106 	br	8004fb4 <___vfprintf_internal_r+0x1dcc>
 8004fb0:	20800003 	ldbu	r2,0(r4)
 8004fb4:	18800005 	stb	r2,0(r3)
 8004fb8:	18c00044 	addi	r3,r3,1
 8004fbc:	21000044 	addi	r4,r4,1
 8004fc0:	197ffb1e 	bne	r3,r5,8004fb0 <__alt_data_end+0xfc004fb0>
 8004fc4:	d8812304 	addi	r2,sp,1164
 8004fc8:	1485c83a 	sub	r2,r2,r18
 8004fcc:	d8c12344 	addi	r3,sp,1165
 8004fd0:	1885883a 	add	r2,r3,r2
 8004fd4:	dac13317 	ldw	r11,1228(sp)
 8004fd8:	156bc83a 	sub	r21,r2,r21
 8004fdc:	dd413a15 	stw	r21,1256(sp)
 8004fe0:	00800044 	movi	r2,1
 8004fe4:	5d65883a 	add	r18,r11,r21
 8004fe8:	12c0770e 	bge	r2,r11,80051c8 <___vfprintf_internal_r+0x1fe0>
 8004fec:	94800044 	addi	r18,r18,1
 8004ff0:	9005883a 	mov	r2,r18
 8004ff4:	90007216 	blt	r18,zero,80051c0 <___vfprintf_internal_r+0x1fd8>
 8004ff8:	d8013415 	stw	zero,1232(sp)
 8004ffc:	003e7906 	br	80049e4 <__alt_data_end+0xfc0049e4>
 8005000:	da412b15 	stw	r9,1196(sp)
 8005004:	dd412783 	ldbu	r21,1182(sp)
 8005008:	4825883a 	mov	r18,r9
 800500c:	dcc12d15 	stw	r19,1204(sp)
 8005010:	d8013215 	stw	zero,1224(sp)
 8005014:	d8013415 	stw	zero,1232(sp)
 8005018:	003a0706 	br	8003838 <__alt_data_end+0xfc003838>
 800501c:	b009883a 	mov	r4,r22
 8005020:	b80b883a 	mov	r5,r23
 8005024:	d9811e04 	addi	r6,sp,1144
 8005028:	800acc00 	call	800acc0 <__sprint_r>
 800502c:	1039851e 	bne	r2,zero,8003644 <__alt_data_end+0xfc003644>
 8005030:	dc012617 	ldw	r16,1176(sp)
 8005034:	d8c12017 	ldw	r3,1152(sp)
 8005038:	d8811f17 	ldw	r2,1148(sp)
 800503c:	da000404 	addi	r8,sp,16
 8005040:	003ec706 	br	8004b60 <__alt_data_end+0xfc004b60>
 8005044:	483e1a1e 	bne	r9,zero,80048b0 <__alt_data_end+0xfc0048b0>
 8005048:	9013883a 	mov	r9,r18
 800504c:	003e1806 	br	80048b0 <__alt_data_end+0xfc0048b0>
 8005050:	00c00b44 	movi	r3,45
 8005054:	64a0003c 	xorhi	r18,r12,32768
 8005058:	d8c12b05 	stb	r3,1196(sp)
 800505c:	003e1a06 	br	80048c8 <__alt_data_end+0xfc0048c8>
 8005060:	4f000044 	addi	fp,r9,1
 8005064:	003e1f06 	br	80048e4 <__alt_data_end+0xfc0048e4>
 8005068:	02400184 	movi	r9,6
 800506c:	003e1006 	br	80048b0 <__alt_data_end+0xfc0048b0>
 8005070:	d8c13417 	ldw	r3,1232(sp)
 8005074:	00c04b0e 	bge	zero,r3,80051a4 <___vfprintf_internal_r+0x1fbc>
 8005078:	04800044 	movi	r18,1
 800507c:	dac13317 	ldw	r11,1228(sp)
 8005080:	92e5883a 	add	r18,r18,r11
 8005084:	9005883a 	mov	r2,r18
 8005088:	903e560e 	bge	r18,zero,80049e4 <__alt_data_end+0xfc0049e4>
 800508c:	0005883a 	mov	r2,zero
 8005090:	003e5406 	br	80049e4 <__alt_data_end+0xfc0049e4>
 8005094:	d8c12617 	ldw	r3,1176(sp)
 8005098:	d8c13415 	stw	r3,1232(sp)
 800509c:	00c03b0e 	bge	zero,r3,800518c <___vfprintf_internal_r+0x1fa4>
 80050a0:	4800081e 	bne	r9,zero,80050c4 <___vfprintf_internal_r+0x1edc>
 80050a4:	8c40004c 	andi	r17,r17,1
 80050a8:	8800061e 	bne	r17,zero,80050c4 <___vfprintf_internal_r+0x1edc>
 80050ac:	1805883a 	mov	r2,r3
 80050b0:	183e4b0e 	bge	r3,zero,80049e0 <__alt_data_end+0xfc0049e0>
 80050b4:	0005883a 	mov	r2,zero
 80050b8:	003e4906 	br	80049e0 <__alt_data_end+0xfc0049e0>
 80050bc:	d8812117 	ldw	r2,1156(sp)
 80050c0:	003e3506 	br	8004998 <__alt_data_end+0xfc004998>
 80050c4:	dac13417 	ldw	r11,1232(sp)
 80050c8:	4a400044 	addi	r9,r9,1
 80050cc:	5a65883a 	add	r18,r11,r9
 80050d0:	9005883a 	mov	r2,r18
 80050d4:	903e430e 	bge	r18,zero,80049e4 <__alt_data_end+0xfc0049e4>
 80050d8:	003fec06 	br	800508c <__alt_data_end+0xfc00508c>
 80050dc:	00800c04 	movi	r2,48
 80050e0:	e0c00c04 	addi	r3,fp,48
 80050e4:	d8812345 	stb	r2,1165(sp)
 80050e8:	d8c12385 	stb	r3,1166(sp)
 80050ec:	d88123c4 	addi	r2,sp,1167
 80050f0:	dd4122c4 	addi	r21,sp,1163
 80050f4:	003fb706 	br	8004fd4 <__alt_data_end+0xfc004fd4>
 80050f8:	0005883a 	mov	r2,zero
 80050fc:	003f6006 	br	8004e80 <__alt_data_end+0xfc004e80>
 8005100:	db013417 	ldw	r12,1232(sp)
 8005104:	64800044 	addi	r18,r12,1
 8005108:	9005883a 	mov	r2,r18
 800510c:	903e350e 	bge	r18,zero,80049e4 <__alt_data_end+0xfc0049e4>
 8005110:	003fde06 	br	800508c <__alt_data_end+0xfc00508c>
 8005114:	d9013717 	ldw	r4,1244(sp)
 8005118:	900b883a 	mov	r5,r18
 800511c:	000d883a 	mov	r6,zero
 8005120:	000f883a 	mov	r7,zero
 8005124:	da013f15 	stw	r8,1276(sp)
 8005128:	da413e15 	stw	r9,1272(sp)
 800512c:	da813d15 	stw	r10,1268(sp)
 8005130:	800f3140 	call	800f314 <__eqdf2>
 8005134:	da013f17 	ldw	r8,1276(sp)
 8005138:	da413e17 	ldw	r9,1272(sp)
 800513c:	da813d17 	ldw	r10,1268(sp)
 8005140:	103f1426 	beq	r2,zero,8004d94 <__alt_data_end+0xfc004d94>
 8005144:	00800044 	movi	r2,1
 8005148:	1707c83a 	sub	r3,r2,fp
 800514c:	d8c12615 	stw	r3,1176(sp)
 8005150:	003f1106 	br	8004d98 <__alt_data_end+0xfc004d98>
 8005154:	dac12d17 	ldw	r11,1204(sp)
 8005158:	5a400017 	ldw	r9,0(r11)
 800515c:	5ac00104 	addi	r11,r11,4
 8005160:	dac12d15 	stw	r11,1204(sp)
 8005164:	483ec60e 	bge	r9,zero,8004c80 <__alt_data_end+0xfc004c80>
 8005168:	027fffc4 	movi	r9,-1
 800516c:	1c000047 	ldb	r16,1(r3)
 8005170:	00388406 	br	8003384 <__alt_data_end+0xfc003384>
 8005174:	043fffc4 	movi	r16,-1
 8005178:	00391006 	br	80035bc <__alt_data_end+0xfc0035bc>
 800517c:	00800b44 	movi	r2,45
 8005180:	0739c83a 	sub	fp,zero,fp
 8005184:	d8812305 	stb	r2,1164(sp)
 8005188:	003f6906 	br	8004f30 <__alt_data_end+0xfc004f30>
 800518c:	4800081e 	bne	r9,zero,80051b0 <___vfprintf_internal_r+0x1fc8>
 8005190:	8c40004c 	andi	r17,r17,1
 8005194:	8800061e 	bne	r17,zero,80051b0 <___vfprintf_internal_r+0x1fc8>
 8005198:	00800044 	movi	r2,1
 800519c:	1025883a 	mov	r18,r2
 80051a0:	003e1006 	br	80049e4 <__alt_data_end+0xfc0049e4>
 80051a4:	04800084 	movi	r18,2
 80051a8:	90e5c83a 	sub	r18,r18,r3
 80051ac:	003fb306 	br	800507c <__alt_data_end+0xfc00507c>
 80051b0:	4c800084 	addi	r18,r9,2
 80051b4:	9005883a 	mov	r2,r18
 80051b8:	903e0a0e 	bge	r18,zero,80049e4 <__alt_data_end+0xfc0049e4>
 80051bc:	003fb306 	br	800508c <__alt_data_end+0xfc00508c>
 80051c0:	0005883a 	mov	r2,zero
 80051c4:	003f8c06 	br	8004ff8 <__alt_data_end+0xfc004ff8>
 80051c8:	88a2703a 	and	r17,r17,r2
 80051cc:	883f8826 	beq	r17,zero,8004ff0 <__alt_data_end+0xfc004ff0>
 80051d0:	003f8606 	br	8004fec <__alt_data_end+0xfc004fec>
 80051d4:	d8812344 	addi	r2,sp,1165
 80051d8:	003f7e06 	br	8004fd4 <__alt_data_end+0xfc004fd4>
 80051dc:	d8c12617 	ldw	r3,1176(sp)
 80051e0:	003f4d06 	br	8004f18 <__alt_data_end+0xfc004f18>

080051e4 <__vfprintf_internal>:
 80051e4:	2007883a 	mov	r3,r4
 80051e8:	01020074 	movhi	r4,2049
 80051ec:	2113ff04 	addi	r4,r4,20476
 80051f0:	21000017 	ldw	r4,0(r4)
 80051f4:	2805883a 	mov	r2,r5
 80051f8:	300f883a 	mov	r7,r6
 80051fc:	180b883a 	mov	r5,r3
 8005200:	100d883a 	mov	r6,r2
 8005204:	80031e81 	jmpi	80031e8 <___vfprintf_internal_r>

08005208 <__swsetup_r>:
 8005208:	00820074 	movhi	r2,2049
 800520c:	defffd04 	addi	sp,sp,-12
 8005210:	1093ff04 	addi	r2,r2,20476
 8005214:	dc400115 	stw	r17,4(sp)
 8005218:	2023883a 	mov	r17,r4
 800521c:	11000017 	ldw	r4,0(r2)
 8005220:	dc000015 	stw	r16,0(sp)
 8005224:	dfc00215 	stw	ra,8(sp)
 8005228:	2821883a 	mov	r16,r5
 800522c:	20000226 	beq	r4,zero,8005238 <__swsetup_r+0x30>
 8005230:	20c00e17 	ldw	r3,56(r4)
 8005234:	18002e26 	beq	r3,zero,80052f0 <__swsetup_r+0xe8>
 8005238:	8080030b 	ldhu	r2,12(r16)
 800523c:	10c0020c 	andi	r3,r2,8
 8005240:	100d883a 	mov	r6,r2
 8005244:	18000f26 	beq	r3,zero,8005284 <__swsetup_r+0x7c>
 8005248:	80c00417 	ldw	r3,16(r16)
 800524c:	18001526 	beq	r3,zero,80052a4 <__swsetup_r+0x9c>
 8005250:	1100004c 	andi	r4,r2,1
 8005254:	20001c1e 	bne	r4,zero,80052c8 <__swsetup_r+0xc0>
 8005258:	1080008c 	andi	r2,r2,2
 800525c:	1000261e 	bne	r2,zero,80052f8 <__swsetup_r+0xf0>
 8005260:	80800517 	ldw	r2,20(r16)
 8005264:	80800215 	stw	r2,8(r16)
 8005268:	18001c26 	beq	r3,zero,80052dc <__swsetup_r+0xd4>
 800526c:	0005883a 	mov	r2,zero
 8005270:	dfc00217 	ldw	ra,8(sp)
 8005274:	dc400117 	ldw	r17,4(sp)
 8005278:	dc000017 	ldw	r16,0(sp)
 800527c:	dec00304 	addi	sp,sp,12
 8005280:	f800283a 	ret
 8005284:	3080040c 	andi	r2,r6,16
 8005288:	10001726 	beq	r2,zero,80052e8 <__swsetup_r+0xe0>
 800528c:	3080010c 	andi	r2,r6,4
 8005290:	10001b1e 	bne	r2,zero,8005300 <__swsetup_r+0xf8>
 8005294:	80c00417 	ldw	r3,16(r16)
 8005298:	30800214 	ori	r2,r6,8
 800529c:	8080030d 	sth	r2,12(r16)
 80052a0:	183feb1e 	bne	r3,zero,8005250 <__alt_data_end+0xfc005250>
 80052a4:	1140a00c 	andi	r5,r2,640
 80052a8:	01008004 	movi	r4,512
 80052ac:	293fe826 	beq	r5,r4,8005250 <__alt_data_end+0xfc005250>
 80052b0:	8809883a 	mov	r4,r17
 80052b4:	800b883a 	mov	r5,r16
 80052b8:	80078bc0 	call	80078bc <__smakebuf_r>
 80052bc:	8080030b 	ldhu	r2,12(r16)
 80052c0:	80c00417 	ldw	r3,16(r16)
 80052c4:	003fe206 	br	8005250 <__alt_data_end+0xfc005250>
 80052c8:	80800517 	ldw	r2,20(r16)
 80052cc:	80000215 	stw	zero,8(r16)
 80052d0:	0085c83a 	sub	r2,zero,r2
 80052d4:	80800615 	stw	r2,24(r16)
 80052d8:	183fe41e 	bne	r3,zero,800526c <__alt_data_end+0xfc00526c>
 80052dc:	8080030b 	ldhu	r2,12(r16)
 80052e0:	1080200c 	andi	r2,r2,128
 80052e4:	103fe226 	beq	r2,zero,8005270 <__alt_data_end+0xfc005270>
 80052e8:	00bfffc4 	movi	r2,-1
 80052ec:	003fe006 	br	8005270 <__alt_data_end+0xfc005270>
 80052f0:	80072080 	call	8007208 <__sinit>
 80052f4:	003fd006 	br	8005238 <__alt_data_end+0xfc005238>
 80052f8:	0005883a 	mov	r2,zero
